
FinalProject.elf:     file format elf32-littlenios2
FinalProject.elf
architecture: nios2:r1, flags 0x00000112:
EXEC_P, HAS_SYMS, D_PAGED
start address 0x04000000

Program Header:
    LOAD off    0x00001000 vaddr 0x04000000 paddr 0x04000000 align 2**12
         filesz 0x0000f99c memsz 0x0000f99c flags r-x
    LOAD off    0x0001099c vaddr 0x0400f99c paddr 0x0401148c align 2**12
         filesz 0x00001af0 memsz 0x00001af0 flags rw-
    LOAD off    0x00012f7c vaddr 0x04012f7c paddr 0x04012f7c align 2**12
         filesz 0x00000000 memsz 0x00000160 flags rw-
    LOAD off    0x00013000 vaddr 0x08010000 paddr 0x08010000 align 2**12
         filesz 0x00000020 memsz 0x00000020 flags r-x
    LOAD off    0x00013020 vaddr 0x08010020 paddr 0x08010020 align 2**12
         filesz 0x00000210 memsz 0x00000210 flags r-x

Sections:
Idx Name          Size      VMA       LMA       File off  Algn
  0 .entry        00000020  08010000  08010000  00013000  2**5
                  CONTENTS, ALLOC, LOAD, READONLY, CODE
  1 .exceptions   00000210  08010020  08010020  00013020  2**2
                  CONTENTS, ALLOC, LOAD, READONLY, CODE
  2 .text         0000f678  04000000  04000000  00001000  2**2
                  CONTENTS, ALLOC, LOAD, READONLY, CODE
  3 .rodata       00000324  0400f678  0400f678  00010678  2**2
                  CONTENTS, ALLOC, LOAD, READONLY, DATA
  4 .rwdata       00001af0  0400f99c  0401148c  0001099c  2**2
                  CONTENTS, ALLOC, LOAD, DATA, SMALL_DATA
  5 .bss          00000160  04012f7c  04012f7c  00012f7c  2**2
                  ALLOC, SMALL_DATA
  6 .sdram        00000000  040130dc  040130dc  00013230  2**0
                  CONTENTS
  7 .onchip_memory 00000000  08010230  08010230  00013230  2**0
                  CONTENTS
  8 .comment      00000023  00000000  00000000  00013230  2**0
                  CONTENTS, READONLY
  9 .debug_aranges 00000e98  00000000  00000000  00013258  2**3
                  CONTENTS, READONLY, DEBUGGING
 10 .debug_info   00023228  00000000  00000000  000140f0  2**0
                  CONTENTS, READONLY, DEBUGGING
 11 .debug_abbrev 00008e56  00000000  00000000  00037318  2**0
                  CONTENTS, READONLY, DEBUGGING
 12 .debug_line   0000b3f2  00000000  00000000  0004016e  2**0
                  CONTENTS, READONLY, DEBUGGING
 13 .debug_frame  00002030  00000000  00000000  0004b560  2**2
                  CONTENTS, READONLY, DEBUGGING
 14 .debug_str    00003857  00000000  00000000  0004d590  2**0
                  CONTENTS, READONLY, DEBUGGING
 15 .debug_loc    0001786c  00000000  00000000  00050de7  2**0
                  CONTENTS, READONLY, DEBUGGING
 16 .debug_alt_sim_info 00000010  00000000  00000000  00068654  2**2
                  CONTENTS, READONLY, DEBUGGING
 17 .debug_ranges 000018d0  00000000  00000000  00068668  2**3
                  CONTENTS, READONLY, DEBUGGING
 18 .thread_model 00000003  00000000  00000000  0006cf3d  2**0
                  CONTENTS, READONLY
 19 .cpu          00000003  00000000  00000000  0006cf40  2**0
                  CONTENTS, READONLY
 20 .qsys         00000001  00000000  00000000  0006cf43  2**0
                  CONTENTS, READONLY
 21 .simulation_enabled 00000001  00000000  00000000  0006cf44  2**0
                  CONTENTS, READONLY
 22 .stderr_dev   00000009  00000000  00000000  0006cf45  2**0
                  CONTENTS, READONLY
 23 .stdin_dev    00000009  00000000  00000000  0006cf4e  2**0
                  CONTENTS, READONLY
 24 .stdout_dev   00000009  00000000  00000000  0006cf57  2**0
                  CONTENTS, READONLY
 25 .sopc_system_name 00000009  00000000  00000000  0006cf60  2**0
                  CONTENTS, READONLY
 26 .quartus_project_dir 00000039  00000000  00000000  0006cf69  2**0
                  CONTENTS, READONLY
 27 .sopcinfo     00042b9e  00000000  00000000  0006cfa2  2**0
                  CONTENTS, READONLY
SYMBOL TABLE:
08010000 l    d  .entry	00000000 .entry
08010020 l    d  .exceptions	00000000 .exceptions
04000000 l    d  .text	00000000 .text
0400f678 l    d  .rodata	00000000 .rodata
0400f99c l    d  .rwdata	00000000 .rwdata
04012f7c l    d  .bss	00000000 .bss
040130dc l    d  .sdram	00000000 .sdram
08010230 l    d  .onchip_memory	00000000 .onchip_memory
00000000 l    d  .comment	00000000 .comment
00000000 l    d  .debug_aranges	00000000 .debug_aranges
00000000 l    d  .debug_info	00000000 .debug_info
00000000 l    d  .debug_abbrev	00000000 .debug_abbrev
00000000 l    d  .debug_line	00000000 .debug_line
00000000 l    d  .debug_frame	00000000 .debug_frame
00000000 l    d  .debug_str	00000000 .debug_str
00000000 l    d  .debug_loc	00000000 .debug_loc
00000000 l    d  .debug_alt_sim_info	00000000 .debug_alt_sim_info
00000000 l    d  .debug_ranges	00000000 .debug_ranges
00000000 l    df *ABS*	00000000 ../FinalProject_bsp//obj/HAL/src/crt0.o
04000038 l       .text	00000000 alt_after_alt_main
00000000 l    df *ABS*	00000000 alt_irq_handler.c
00000000 l    df *ABS*	00000000 alt_instruction_exception_entry.c
00000000 l    df *ABS*	00000000 hello_world.c
00000000 l    df *ABS*	00000000 printf.c
00000000 l    df *ABS*	00000000 puts.c
00000000 l    df *ABS*	00000000 strlen.c
00000000 l    df *ABS*	00000000 vfprintf.c
0400f6ea l     O .rodata	00000010 zeroes.4404
04002574 l     F .text	000000bc __sbprintf
0400f6fa l     O .rodata	00000010 blanks.4403
00000000 l    df *ABS*	00000000 wsetup.c
00000000 l    df *ABS*	00000000 dtoa.c
04002784 l     F .text	00000228 quorem
00000000 l    df *ABS*	00000000 fflush.c
00000000 l    df *ABS*	00000000 findfp.c
040042dc l     F .text	00000008 __fp_unlock
040042f0 l     F .text	0000019c __sinit.part.1
0400448c l     F .text	00000008 __fp_lock
00000000 l    df *ABS*	00000000 mallocr.c
00000000 l    df *ABS*	00000000 fvwrite.c
00000000 l    df *ABS*	00000000 fwalk.c
00000000 l    df *ABS*	00000000 impure.c
0400f99c l     O .rwdata	00000424 impure_data
00000000 l    df *ABS*	00000000 locale.c
0400fde0 l     O .rwdata	00000020 lc_ctype_charset
0400fdc0 l     O .rwdata	00000020 lc_message_charset
0400fe00 l     O .rwdata	00000038 lconv
00000000 l    df *ABS*	00000000 makebuf.c
00000000 l    df *ABS*	00000000 mallocr.c
00000000 l    df *ABS*	00000000 memchr.c
00000000 l    df *ABS*	00000000 memcpy.c
00000000 l    df *ABS*	00000000 memmove.c
00000000 l    df *ABS*	00000000 memset.c
00000000 l    df *ABS*	00000000 mprec.c
0400f72c l     O .rodata	0000000c p05.2768
00000000 l    df *ABS*	00000000 mallocr.c
00000000 l    df *ABS*	00000000 s_fpclassify.c
00000000 l    df *ABS*	00000000 sbrkr.c
00000000 l    df *ABS*	00000000 stdio.c
00000000 l    df *ABS*	00000000 strcmp.c
00000000 l    df *ABS*	00000000 vfprintf.c
04007960 l     F .text	000000fc __sprint_r.part.0
0400f850 l     O .rodata	00000010 zeroes.4349
04008f9c l     F .text	000000bc __sbprintf
0400f860 l     O .rodata	00000010 blanks.4348
00000000 l    df *ABS*	00000000 writer.c
00000000 l    df *ABS*	00000000 closer.c
00000000 l    df *ABS*	00000000 mallocr.c
00000000 l    df *ABS*	00000000 fclose.c
00000000 l    df *ABS*	00000000 fputwc.c
00000000 l    df *ABS*	00000000 fstatr.c
00000000 l    df *ABS*	00000000 int_errno.c
00000000 l    df *ABS*	00000000 isattyr.c
00000000 l    df *ABS*	00000000 lseekr.c
00000000 l    df *ABS*	00000000 readr.c
00000000 l    df *ABS*	00000000 wbuf.c
00000000 l    df *ABS*	00000000 wcrtomb.c
00000000 l    df *ABS*	00000000 wctomb_r.c
00000000 l    df *ABS*	00000000 libgcc2.c
00000000 l    df *ABS*	00000000 libgcc2.c
00000000 l    df *ABS*	00000000 lib2-divmod.c
00000000 l    df *ABS*	00000000 lib2-mul.c
00000000 l    df *ABS*	00000000 adddf3.c
00000000 l    df *ABS*	00000000 divdf3.c
00000000 l    df *ABS*	00000000 eqdf2.c
00000000 l    df *ABS*	00000000 gedf2.c
00000000 l    df *ABS*	00000000 ledf2.c
00000000 l    df *ABS*	00000000 muldf3.c
00000000 l    df *ABS*	00000000 subdf3.c
00000000 l    df *ABS*	00000000 fixdfsi.c
00000000 l    df *ABS*	00000000 floatsidf.c
00000000 l    df *ABS*	00000000 floatunsidf.c
00000000 l    df *ABS*	00000000 libgcc2.c
00000000 l    df *ABS*	00000000 libgcc2.c
00000000 l    df *ABS*	00000000 alt_close.c
0400cfe4 l     F .text	0000003c alt_get_errno
00000000 l    df *ABS*	00000000 alt_dev.c
0400d0f8 l     F .text	0000002c alt_dev_null_write
00000000 l    df *ABS*	00000000 alt_errno.c
00000000 l    df *ABS*	00000000 alt_fstat.c
0400d124 l     F .text	0000003c alt_get_errno
00000000 l    df *ABS*	00000000 alt_isatty.c
0400d218 l     F .text	0000003c alt_get_errno
00000000 l    df *ABS*	00000000 alt_load.c
0400d300 l     F .text	00000068 alt_load_section
00000000 l    df *ABS*	00000000 alt_lseek.c
0400d3ec l     F .text	0000003c alt_get_errno
00000000 l    df *ABS*	00000000 alt_main.c
00000000 l    df *ABS*	00000000 alt_malloc_lock.c
00000000 l    df *ABS*	00000000 alt_read.c
0400d5c8 l     F .text	0000003c alt_get_errno
00000000 l    df *ABS*	00000000 alt_release_fd.c
00000000 l    df *ABS*	00000000 alt_sbrk.c
0401147c l     O .rwdata	00000004 heap_end
00000000 l    df *ABS*	00000000 alt_write.c
0400d83c l     F .text	0000003c alt_get_errno
00000000 l    df *ABS*	00000000 alt_sys_init.c
0400d978 l     F .text	00000034 alt_dev_reg
040103e8 l     O .rwdata	00001060 jtag_uart
00000000 l    df *ABS*	00000000 altera_avalon_jtag_uart_fd.c
00000000 l    df *ABS*	00000000 altera_avalon_jtag_uart_init.c
0400dc50 l     F .text	0000020c altera_avalon_jtag_uart_irq
0400de5c l     F .text	000000a0 altera_avalon_jtag_uart_timeout
00000000 l    df *ABS*	00000000 altera_avalon_jtag_uart_ioctl.c
00000000 l    df *ABS*	00000000 altera_avalon_jtag_uart_read.c
00000000 l    df *ABS*	00000000 altera_avalon_jtag_uart_write.c
00000000 l    df *ABS*	00000000 alt_alarm_start.c
00000000 l    df *ABS*	00000000 alt_dcache_flush_all.c
00000000 l    df *ABS*	00000000 alt_dev_llist_insert.c
0400e5e0 l     F .text	0000003c alt_get_errno
00000000 l    df *ABS*	00000000 alt_do_ctors.c
00000000 l    df *ABS*	00000000 alt_do_dtors.c
00000000 l    df *ABS*	00000000 alt_icache_flush_all.c
00000000 l    df *ABS*	00000000 alt_iic.c
00000000 l    df *ABS*	00000000 alt_iic_isr_register.c
00000000 l    df *ABS*	00000000 alt_io_redirect.c
0400ea40 l     F .text	000000e4 alt_open_fd
00000000 l    df *ABS*	00000000 alt_irq_vars.c
00000000 l    df *ABS*	00000000 alt_open.c
0400eba0 l     F .text	0000003c alt_get_errno
0400ebdc l     F .text	000000ec alt_file_locked
00000000 l    df *ABS*	00000000 alt_tick.c
00000000 l    df *ABS*	00000000 altera_nios2_gen2_irq.c
00000000 l    df *ABS*	00000000 alt_find_dev.c
00000000 l    df *ABS*	00000000 alt_find_file.c
00000000 l    df *ABS*	00000000 alt_get_fd.c
00000000 l    df *ABS*	00000000 atexit.c
00000000 l    df *ABS*	00000000 exit.c
00000000 l    df *ABS*	00000000 memcmp.c
00000000 l    df *ABS*	00000000 __atexit.c
00000000 l    df *ABS*	00000000 __call_atexit.c
00000000 l    df *ABS*	00000000 alt_exit.c
04012fb0 g     O .bss	00000004 alt_instruction_exception_handler
04006fa4 g     F .text	00000074 _mprec_log10
04007090 g     F .text	0000008c __any_on
04009550 g     F .text	00000054 _isatty_r
0400f738 g     O .rodata	00000028 __mprec_tinytens
0400d504 g     F .text	0000007c alt_main
04000110 g     F .text	000000c0 _puts_r
04012fdc g     O .bss	00000100 alt_irq
040095a4 g     F .text	00000060 _lseek_r
0401148c g       *ABS*	00000000 __flash_rwdata_start
0400b9bc g     F .text	00000088 .hidden __eqdf2
040130dc g       *ABS*	00000000 __alt_heap_start
040000d4 g     F .text	0000003c printf
040097bc g     F .text	0000009c _wcrtomb_r
04007820 g     F .text	0000005c __sseek
0400463c g     F .text	00000010 __sinit
04009664 g     F .text	00000140 __swbuf_r
04005110 g     F .text	0000007c _setlocale_r
04004494 g     F .text	00000078 __sfmoreglue
0400d5a4 g     F .text	00000024 __malloc_unlock
04005de0 g     F .text	0000015c memmove
04004624 g     F .text	00000018 _cleanup
04011448 g     O .rwdata	00000004 image_data
04006064 g     F .text	000000a8 _Balloc
0400ba44 g     F .text	000000dc .hidden __gtdf2
0400efc8 g     F .text	00000024 altera_nios2_gen2_irq_init
08010000 g     F .entry	0000000c __reset
08010020 g       *ABS*	00000000 __flash_exceptions_start
040094f4 g     F .text	0000005c _fstat_r
04012f94 g     O .bss	00000004 errno
0400779c g     F .text	00000008 __seofread
04012f9c g     O .bss	00000004 alt_argv
04019448 g       *ABS*	00000000 _gp
04010268 g     O .rwdata	00000180 alt_fd_list
0400efec g     F .text	00000090 alt_find_dev
04005c98 g     F .text	00000148 memcpy
040042e4 g     F .text	0000000c _cleanup_r
0400cdfc g     F .text	000000dc .hidden __floatsidf
0400eb24 g     F .text	0000007c alt_io_redirect
0400bb20 g     F .text	000000f4 .hidden __ltdf2
0400f678 g       *ABS*	00000000 __DTOR_END__
040001d0 g     F .text	00000014 puts
0400f248 g     F .text	0000009c alt_exception_cause_generated_bad_addr
04007680 g     F .text	00000074 __fpclassifyd
04006f00 g     F .text	000000a4 __ratio
04008f80 g     F .text	0000001c __vfiprintf_internal
0400e054 g     F .text	0000021c altera_avalon_jtag_uart_read
040000a4 g     F .text	00000030 _printf_r
0400a65c g     F .text	00000064 .hidden __udivsi3
0400d254 g     F .text	000000ac isatty
0400f788 g     O .rodata	000000c8 __mprec_tens
0400518c g     F .text	0000000c __locale_charset
04012f90 g     O .bss	00000004 __malloc_top_pad
04011454 g     O .rwdata	00000004 __mb_cur_max
040051bc g     F .text	0000000c _localeconv_r
04006498 g     F .text	0000003c __i2b
04004ac0 g     F .text	000004c8 __sfvwrite_r
040076f4 g     F .text	00000054 _sbrk_r
04009604 g     F .text	00000060 _read_r
04011474 g     O .rwdata	00000004 alt_max_fd
040091e8 g     F .text	000000f0 _fclose_r
040042ac g     F .text	00000030 fflush
04012f8c g     O .bss	00000004 __malloc_max_sbrked_mem
0400a740 g     F .text	000008ac .hidden __adddf3
04006ca8 g     F .text	0000010c __b2d
04009fa0 g     F .text	000005c4 .hidden __umoddi3
0400d428 g     F .text	000000dc lseek
0401144c g     O .rwdata	00000004 _global_impure_ptr
0400711c g     F .text	00000564 _realloc_r
040130dc g       *ABS*	00000000 __bss_end
0400e950 g     F .text	000000f0 alt_iic_isr_register
0400eec0 g     F .text	00000108 alt_tick
040099a4 g     F .text	000005fc .hidden __udivdi3
04009450 g     F .text	00000024 _fputwc_r
0400f760 g     O .rodata	00000028 __mprec_bigtens
0400627c g     F .text	00000104 __s2b
0400ced8 g     F .text	000000a8 .hidden __floatunsidf
040069e8 g     F .text	00000060 __mcmp
0400465c g     F .text	00000018 __fp_lock_all
0400e904 g     F .text	0000004c alt_ic_irq_enabled
0400ee24 g     F .text	0000009c alt_alarm_stop
04012fa4 g     O .bss	00000004 alt_irq_active
080100fc g     F .exceptions	000000d4 alt_irq_handler
04010240 g     O .rwdata	00000028 alt_dev_null
0400e5c0 g     F .text	00000020 alt_dcache_flush_all
04006380 g     F .text	00000068 __hi0bits
0400cd7c g     F .text	00000080 .hidden __fixdfsi
0401148c g       *ABS*	00000000 __ram_rwdata_end
08010000 g       *ABS*	00000000 __alt_mem_onchip_memory
0401146c g     O .rwdata	00000008 alt_dev_list
0400d878 g     F .text	00000100 write
0400f99c g       *ABS*	00000000 __ram_rodata_end
0400d160 g     F .text	000000b8 fstat
0400bb20 g     F .text	000000f4 .hidden __ledf2
04006760 g     F .text	00000140 __pow5mult
04007a74 g     F .text	0000150c ___vfiprintf_internal_r
04012f84 g     O .bss	00000004 __nlocale_changed
0400a6c0 g     F .text	00000058 .hidden __umodsi3
040130dc g       *ABS*	00000000 end
0400db90 g     F .text	000000c0 altera_avalon_jtag_uart_init
080101d0 g     F .exceptions	00000060 alt_instruction_exception_entry
0400f678 g       *ABS*	00000000 __CTOR_LIST__
08000000 g       *ABS*	00000000 __alt_stack_pointer
0400cf80 g     F .text	00000064 .hidden __clzsi2
0400e270 g     F .text	00000224 altera_avalon_jtag_uart_write
0400464c g     F .text	00000004 __sfp_lock_acquire
04005bb4 g     F .text	000000e4 memchr
0400027c g     F .text	000022dc ___vfprintf_internal_r
040047b0 g     F .text	00000310 _free_r
04005198 g     F .text	00000010 __locale_mb_cur_max
0400f4c4 g     F .text	00000180 __call_exitprocs
04012f80 g     O .bss	00000004 __mlocale_changed
04011458 g     O .rwdata	00000004 __malloc_sbrk_base
04000000 g     F .text	0000003c _start
04012fa8 g     O .bss	00000004 _alt_tick_rate
040068a0 g     F .text	00000148 __lshift
04012fac g     O .bss	00000004 _alt_nticks
0400d604 g     F .text	00000104 read
0400d9e4 g     F .text	00000048 alt_sys_init
0400f3ac g     F .text	00000118 __register_exitproc
040064d4 g     F .text	0000028c __multiply
0400defc g     F .text	00000068 altera_avalon_jtag_uart_close
0400a718 g     F .text	00000028 .hidden __mulsi3
0400f99c g       *ABS*	00000000 __ram_rwdata_start
0400f678 g       *ABS*	00000000 __ram_rodata_start
04012fb4 g     O .bss	00000028 __malloc_current_mallinfo
04006db4 g     F .text	0000014c __d2b
0400da2c g     F .text	00000060 altera_avalon_jtag_uart_read_fd
0400f184 g     F .text	000000c4 alt_get_fd
040090b8 g     F .text	00000054 _close_r
0400f330 g     F .text	0000007c memcmp
0400daec g     F .text	00000050 altera_avalon_jtag_uart_close_fd
040130dc g       *ABS*	00000000 __alt_stack_base
0400db3c g     F .text	00000054 altera_avalon_jtag_uart_ioctl_fd
04002630 g     F .text	00000154 __swsetup_r
0400afec g     F .text	000009d0 .hidden __divdf3
0400450c g     F .text	00000118 __sfp
04007018 g     F .text	00000078 __copybits
0400fe38 g     O .rwdata	00000408 __malloc_av_
04004658 g     F .text	00000004 __sinit_lock_release
0400bc14 g     F .text	0000086c .hidden __muldf3
04007748 g     F .text	00000054 __sread
0400f07c g     F .text	00000108 alt_find_file
0400e61c g     F .text	000000a4 alt_dev_llist_insert
0400d580 g     F .text	00000024 __malloc_lock
0400d78c g     F .text	000000b0 sbrk
04004250 g     F .text	0000005c _fflush_r
0400910c g     F .text	000000dc _calloc_r
04012f7c g       *ABS*	00000000 __bss_start
04005f3c g     F .text	00000128 memset
0400003c g     F .text	00000068 main
04012fa0 g     O .bss	00000004 alt_envp
04012f88 g     O .bss	00000004 __malloc_max_total_mem
0400da8c g     F .text	00000060 altera_avalon_jtag_uart_write_fd
040097a4 g     F .text	00000018 __swbuf
0400787c g     F .text	00000008 __sclose
08000000 g       *ABS*	00000000 __alt_heap_limit
040092d8 g     F .text	00000014 fclose
040029ac g     F .text	00001688 _dtoa_r
040053a8 g     F .text	0000080c _malloc_r
04009918 g     F .text	00000030 __ascii_wctomb
04011478 g     O .rwdata	00000004 alt_errno
04004f88 g     F .text	000000c4 _fwalk
0400a564 g     F .text	00000084 .hidden __divsi3
0400468c g     F .text	00000124 _malloc_trim_r
0400f678 g       *ABS*	00000000 __CTOR_END__
04007884 g     F .text	000000dc strcmp
0400f678 g       *ABS*	00000000 __flash_rodata_start
0400f678 g       *ABS*	00000000 __DTOR_LIST__
0400b9bc g     F .text	00000088 .hidden __nedf2
0400d9ac g     F .text	00000038 alt_irq_init
0400d708 g     F .text	00000084 alt_release_fd
0400f870 g     O .rodata	00000100 .hidden __clz_tab
04012f7c g     O .bss	00000004 _PathLocale
0400f2e4 g     F .text	00000014 atexit
04009058 g     F .text	00000060 _write_r
040051c8 g     F .text	00000018 setlocale
04011450 g     O .rwdata	00000004 _impure_ptr
04012f98 g     O .bss	00000004 alt_argc
04004034 g     F .text	0000021c __sflush_r
0400e720 g     F .text	00000060 _do_dtors
040051b4 g     F .text	00000008 __locale_cjk_lang
08010020 g       .exceptions	00000000 alt_irq_entry
04006c44 g     F .text	00000064 __ulp
04004674 g     F .text	00000018 __fp_unlock_all
04011464 g     O .rwdata	00000008 alt_fs_list
08010020 g       *ABS*	00000000 __ram_exceptions_start
040051e0 g     F .text	0000000c localeconv
0400e7a0 g     F .text	00000050 alt_ic_isr_register
0401148c g       *ABS*	00000000 _edata
040130dc g       *ABS*	00000000 _end
040092ec g     F .text	00000164 __fputwc
08010230 g       *ABS*	00000000 __ram_exceptions_end
0400df64 g     F .text	000000f0 altera_avalon_jtag_uart_ioctl
0400e878 g     F .text	0000008c alt_ic_irq_disable
040077a4 g     F .text	0000007c __swrite
0401145c g     O .rwdata	00000004 __malloc_trim_threshold
040051a8 g     F .text	0000000c __locale_msgcharset
0400f2f8 g     F .text	00000038 exit
0400504c g     F .text	000000c4 _fwalk_reent
04006a48 g     F .text	000001fc __mdiff
0400a5e8 g     F .text	00000074 .hidden __modsi3
08000000 g       *ABS*	00000000 __alt_data_end
08010020 g     F .exceptions	00000000 alt_exception
04004650 g     F .text	00000004 __sfp_lock_release
04000000 g       *ABS*	00000000 __alt_mem_sdram
0400f644 g     F .text	00000034 _exit
0400e494 g     F .text	0000012c alt_alarm_start
040051ec g     F .text	000001bc __smakebuf_r
040001e4 g     F .text	00000098 strlen
0400ecc8 g     F .text	0000015c open
0400ba44 g     F .text	000000dc .hidden __gedf2
04011460 g     O .rwdata	00000004 __wctomb
04007a5c g     F .text	00000018 __sprint_r
0400e780 g     F .text	00000020 alt_icache_flush_all
04011480 g     O .rwdata	00000004 alt_priority_mask
0400e7f0 g     F .text	00000088 alt_ic_irq_enable
04002558 g     F .text	0000001c __vfprintf_internal
04009948 g     F .text	0000005c _wctomb_r
0400c480 g     F .text	000008fc .hidden __subdf3
040063e8 g     F .text	000000b0 __lo0bits
04011484 g     O .rwdata	00000008 alt_alarm_list
0400e6c0 g     F .text	00000060 _do_ctors
04009858 g     F .text	000000c0 wcrtomb
0400d020 g     F .text	000000d8 close
0400d368 g     F .text	00000084 alt_load
04009474 g     F .text	00000080 fputwc
04004654 g     F .text	00000004 __sinit_lock_acquire
04006134 g     F .text	00000148 __multadd
0400610c g     F .text	00000028 _Bfree



Disassembly of section .entry:

08010000 <__reset>:
 * Jump to the _start entry point in the .text section if reset code
 * is allowed or if optimizing for RTL simulation.
 */
#if defined(ALT_ALLOW_CODE_AT_RESET) || defined(ALT_SIM_OPTIMIZE)
    /* Jump to the _start entry point in the .text section. */
    movhi r1, %hi(_start)
 8010000:	00410034 	movhi	at,1024
    ori r1, r1, %lo(_start)
 8010004:	08400014 	ori	at,at,0
    jmp r1
 8010008:	0800683a 	jmp	at
	...

Disassembly of section .exceptions:

08010020 <alt_exception>:

#else /* ALT_EXCEPTION_STACK disabled */
        /* 
         * Reserve space on normal stack for registers about to be pushed.
         */
        addi  sp, sp, -76
 8010020:	deffed04 	addi	sp,sp,-76
         * documentation for details).
         *
         * Leave a gap in the stack frame at 4(sp) for the muldiv handler to
         * store zero into.
         */
        stw   ra,  0(sp)
 8010024:	dfc00015 	stw	ra,0(sp)
        stw   r1,   8(sp)
 8010028:	d8400215 	stw	at,8(sp)
        stw   r2,  12(sp)
 801002c:	d8800315 	stw	r2,12(sp)
        stw   r3,  16(sp)
 8010030:	d8c00415 	stw	r3,16(sp)
        stw   r4,  20(sp)
 8010034:	d9000515 	stw	r4,20(sp)
        stw   r5,  24(sp)
 8010038:	d9400615 	stw	r5,24(sp)
        stw   r6,  28(sp)
 801003c:	d9800715 	stw	r6,28(sp)
        stw   r7,  32(sp)
 8010040:	d9c00815 	stw	r7,32(sp)
        rdctl r5, estatus   /* Read early to avoid usage stall */
 8010044:	000b307a 	rdctl	r5,estatus
        stw   r8,  36(sp)
 8010048:	da000915 	stw	r8,36(sp)
        stw   r9,  40(sp)
 801004c:	da400a15 	stw	r9,40(sp)
        stw   r10, 44(sp)
 8010050:	da800b15 	stw	r10,44(sp)
        stw   r11, 48(sp)
 8010054:	dac00c15 	stw	r11,48(sp)
        stw   r12, 52(sp)
 8010058:	db000d15 	stw	r12,52(sp)
        stw   r13, 56(sp)
 801005c:	db400e15 	stw	r13,56(sp)
        stw   r14, 60(sp)
 8010060:	db800f15 	stw	r14,60(sp)
        stw   r15, 64(sp)
 8010064:	dbc01015 	stw	r15,64(sp)
        /*
         * ea-4 contains the address of the instruction being executed
         * when the exception occured. For interrupt exceptions, we will
         * will be re-issue the isntruction. Store it in 72(sp)
         */
        stw   r5,  68(sp)  /* estatus */
 8010068:	d9401115 	stw	r5,68(sp)
        addi  r15, ea, -4  /* instruction that caused exception */
 801006c:	ebffff04 	addi	r15,ea,-4
        stw   r15,  72(sp)
 8010070:	dbc01215 	stw	r15,72(sp)
#else
        /*
         * Test to see if the exception was a software exception or caused 
         * by an external interrupt, and vector accordingly.
         */
        rdctl r4, ipending
 8010074:	0009313a 	rdctl	r4,ipending
        andi  r2, r5, 1
 8010078:	2880004c 	andi	r2,r5,1
        beq   r2, zero, .Lnot_irq
 801007c:	10000326 	beq	r2,zero,801008c <alt_exception+0x6c>
        beq   r4, zero, .Lnot_irq
 8010080:	20000226 	beq	r4,zero,801008c <alt_exception+0x6c>
        /*
         * Now that all necessary registers have been preserved, call 
         * alt_irq_handler() to process the interrupts.
         */

        call alt_irq_handler
 8010084:	80100fc0 	call	80100fc <alt_irq_handler>

        .section .exceptions.irqreturn, "xa"

        br    .Lexception_exit
 8010088:	00000706 	br	80100a8 <alt_exception+0x88>
         * upon completion, so we write ea (address of instruction *after*
         * the one where the exception occured) into 72(sp). The actual
         * instruction that caused the exception is written in r2, which these
         * handlers will utilize.
         */
        stw ea, 72(sp) /* EA is PC+4 so will skip over instruction causing exception */
 801008c:	df401215 	stw	ea,72(sp)
.Lunknown_16bit:
        addi.n r4, r4, 2 /* Need PC+2 to skip over instruction causing exception */
        stw r4, 72(sp)

#else /* CDX is not Enabled and all instructions are 32bits */
        ldw r2, -4(ea) /* Instruction value that caused exception */
 8010090:	e8bfff17 	ldw	r2,-4(ea)
         * debugger is present) or go into an infinite loop since the
         * handling behavior is undefined; in that case we will not return here.
         */

        /* Load exception-causing address as first argument (r4) */
        addi   r4, ea, -4
 8010094:	e93fff04 	addi	r4,ea,-4

        /* Call the instruction-exception entry */
        call   alt_instruction_exception_entry
 8010098:	80101d00 	call	80101d0 <alt_instruction_exception_entry>
         * instruction
         *
         * Return code was 0: Skip. The instruction after the exception is
         * already stored in 72(sp).
         */
        bne   r2, r0, .Lexception_exit
 801009c:	1000021e 	bne	r2,zero,80100a8 <alt_exception+0x88>

        /*
         * Otherwise, modify 72(sp) to re-issue the instruction that caused the
         * exception.
         */
        addi  r15, ea, -4  /* instruction that caused exception */
 80100a0:	ebffff04 	addi	r15,ea,-4
        stw   r15,  72(sp)
 80100a4:	dbc01215 	stw	r15,72(sp)
        /* 
         * Restore the saved registers, so that all general purpose registers 
         * have been restored to their state at the time the interrupt occured.
         */

        ldw   r5,  68(sp)
 80100a8:	d9401117 	ldw	r5,68(sp)
        ldw   ea,  72(sp)  /* This becomes the PC once eret is executed */
 80100ac:	df401217 	ldw	ea,72(sp)
        ldw   ra,   0(sp)
 80100b0:	dfc00017 	ldw	ra,0(sp)

        wrctl estatus, r5
 80100b4:	2801707a 	wrctl	estatus,r5

        ldw   r1,   8(sp)
 80100b8:	d8400217 	ldw	at,8(sp)
        ldw   r2,  12(sp)
 80100bc:	d8800317 	ldw	r2,12(sp)
        ldw   r3,  16(sp)
 80100c0:	d8c00417 	ldw	r3,16(sp)
        ldw   r4,  20(sp)
 80100c4:	d9000517 	ldw	r4,20(sp)
        ldw   r5,  24(sp)
 80100c8:	d9400617 	ldw	r5,24(sp)
        ldw   r6,  28(sp)
 80100cc:	d9800717 	ldw	r6,28(sp)
        ldw   r7,  32(sp)
 80100d0:	d9c00817 	ldw	r7,32(sp)

#if defined(ALT_EXCEPTION_STACK) && defined(ALT_STACK_CHECK)
        ldw   et, %gprel(alt_exception_old_stack_limit)(gp)
#endif

        ldw   r8,  36(sp)
 80100d4:	da000917 	ldw	r8,36(sp)
        ldw   r9,  40(sp)
 80100d8:	da400a17 	ldw	r9,40(sp)
        ldw   r10, 44(sp)
 80100dc:	da800b17 	ldw	r10,44(sp)
        ldw   r11, 48(sp)
 80100e0:	dac00c17 	ldw	r11,48(sp)
        ldw   r12, 52(sp)
 80100e4:	db000d17 	ldw	r12,52(sp)
        ldw   r13, 56(sp)
 80100e8:	db400e17 	ldw	r13,56(sp)
        ldw   r14, 60(sp)
 80100ec:	db800f17 	ldw	r14,60(sp)
        ldw   r15, 64(sp)
 80100f0:	dbc01017 	ldw	r15,64(sp)
        stw   et, %gprel(alt_stack_limit_value)(gp)
        stw   zero, %gprel(alt_exception_old_stack_limit)(gp)
#endif /* ALT_STACK_CHECK */
        ldw   sp,  76(sp)
#else /* ALT_EXCEPTION_STACK disabled */
        addi  sp, sp, 76
 80100f4:	dec01304 	addi	sp,sp,76

        /*
         * Return to the interrupted instruction.
         */

        eret
 80100f8:	ef80083a 	eret

080100fc <alt_irq_handler>:
 * instruction is present if the macro ALT_CI_INTERRUPT_VECTOR defined.
 */

void alt_irq_handler (void) __attribute__ ((section (".exceptions")));
void alt_irq_handler (void)
{
 80100fc:	defff904 	addi	sp,sp,-28
 8010100:	dfc00615 	stw	ra,24(sp)
 8010104:	df000515 	stw	fp,20(sp)
 8010108:	df000504 	addi	fp,sp,20
  
  /*
   * Notify the operating system that we are at interrupt level.
   */ 
  
  ALT_OS_INT_ENTER();
 801010c:	0001883a 	nop
#ifndef NIOS2_EIC_PRESENT
static ALT_INLINE alt_u32 ALT_ALWAYS_INLINE alt_irq_pending (void)
{
  alt_u32 active;

  NIOS2_READ_IPENDING (active);
 8010110:	0005313a 	rdctl	r2,ipending
 8010114:	e0bffe15 	stw	r2,-8(fp)

  return active;
 8010118:	e0bffe17 	ldw	r2,-8(fp)
   * Consider the case where the high priority interupt is asserted during
   * the interrupt entry sequence for a lower priority interrupt to see why
   * this is the case.
   */

  active = alt_irq_pending ();
 801011c:	e0bffb15 	stw	r2,-20(fp)

  do
  {
    i = 0;
 8010120:	e03ffd15 	stw	zero,-12(fp)
    mask = 1;
 8010124:	00800044 	movi	r2,1
 8010128:	e0bffc15 	stw	r2,-16(fp)
     * called to clear the interrupt condition.
     */

    do
    {
      if (active & mask)
 801012c:	e0fffb17 	ldw	r3,-20(fp)
 8010130:	e0bffc17 	ldw	r2,-16(fp)
 8010134:	1884703a 	and	r2,r3,r2
 8010138:	10001426 	beq	r2,zero,801018c <alt_irq_handler+0x90>
      { 
#ifdef ALT_ENHANCED_INTERRUPT_API_PRESENT
        alt_irq[i].handler(alt_irq[i].context); 
 801013c:	00810074 	movhi	r2,1025
 8010140:	108bf704 	addi	r2,r2,12252
 8010144:	e0fffd17 	ldw	r3,-12(fp)
 8010148:	180690fa 	slli	r3,r3,3
 801014c:	10c5883a 	add	r2,r2,r3
 8010150:	10c00017 	ldw	r3,0(r2)
 8010154:	00810074 	movhi	r2,1025
 8010158:	108bf704 	addi	r2,r2,12252
 801015c:	e13ffd17 	ldw	r4,-12(fp)
 8010160:	200890fa 	slli	r4,r4,3
 8010164:	1105883a 	add	r2,r2,r4
 8010168:	10800104 	addi	r2,r2,4
 801016c:	10800017 	ldw	r2,0(r2)
 8010170:	1009883a 	mov	r4,r2
 8010174:	183ee83a 	callr	r3
#else
        alt_irq[i].handler(alt_irq[i].context, i); 
#endif
        break;
 8010178:	0001883a 	nop
#ifndef NIOS2_EIC_PRESENT
static ALT_INLINE alt_u32 ALT_ALWAYS_INLINE alt_irq_pending (void)
{
  alt_u32 active;

  NIOS2_READ_IPENDING (active);
 801017c:	0005313a 	rdctl	r2,ipending
 8010180:	e0bfff15 	stw	r2,-4(fp)

  return active;
 8010184:	e0bfff17 	ldw	r2,-4(fp)
 8010188:	00000706 	br	80101a8 <alt_irq_handler+0xac>
      }
      mask <<= 1;
 801018c:	e0bffc17 	ldw	r2,-16(fp)
 8010190:	1085883a 	add	r2,r2,r2
 8010194:	e0bffc15 	stw	r2,-16(fp)
      i++;
 8010198:	e0bffd17 	ldw	r2,-12(fp)
 801019c:	10800044 	addi	r2,r2,1
 80101a0:	e0bffd15 	stw	r2,-12(fp)

    } while (1);
 80101a4:	003fe106 	br	801012c <__ram_exceptions_end+0xfffffefc>

    active = alt_irq_pending ();
 80101a8:	e0bffb15 	stw	r2,-20(fp)
    
  } while (active);
 80101ac:	e0bffb17 	ldw	r2,-20(fp)
 80101b0:	103fdb1e 	bne	r2,zero,8010120 <__ram_exceptions_end+0xfffffef0>

  /*
   * Notify the operating system that interrupt processing is complete.
   */ 

  ALT_OS_INT_EXIT();
 80101b4:	0001883a 	nop
}
 80101b8:	0001883a 	nop
 80101bc:	e037883a 	mov	sp,fp
 80101c0:	dfc00117 	ldw	ra,4(sp)
 80101c4:	df000017 	ldw	fp,0(sp)
 80101c8:	dec00204 	addi	sp,sp,8
 80101cc:	f800283a 	ret

080101d0 <alt_instruction_exception_entry>:
 * that handler if it has been registered. Absent a handler, it will
 * break break or hang as discussed below.
 */
int 
alt_instruction_exception_entry (alt_u32 exception_pc)
{
 80101d0:	defffb04 	addi	sp,sp,-20
 80101d4:	dfc00415 	stw	ra,16(sp)
 80101d8:	df000315 	stw	fp,12(sp)
 80101dc:	df000304 	addi	fp,sp,12
 80101e0:	e13fff15 	stw	r4,-4(fp)
  cause = ( (cause & NIOS2_EXCEPTION_REG_CAUSE_MASK) >>
              NIOS2_EXCEPTION_REG_CAUSE_OFST );

  NIOS2_READ_BADADDR(badaddr);
#else
  cause = NIOS2_EXCEPTION_CAUSE_NOT_PRESENT;
 80101e4:	00bfffc4 	movi	r2,-1
 80101e8:	e0bffd15 	stw	r2,-12(fp)
  badaddr = 0;
 80101ec:	e03ffe15 	stw	zero,-8(fp)
#endif /* NIOS2_HAS_EXTRA_EXCEPTION_INFO */

  if(alt_instruction_exception_handler) {
 80101f0:	d0a6da17 	ldw	r2,-25752(gp)
 80101f4:	10000726 	beq	r2,zero,8010214 <alt_instruction_exception_entry+0x44>
     * Call handler. Its return value indicates whether the exception-causing
     * instruction should be re-issued. The code that called us,
     * alt_eceptions_entry.S, will look at this value and adjust the ea
     * register as necessary
     */
    return alt_instruction_exception_handler(cause, exception_pc, badaddr);
 80101f8:	d0a6da17 	ldw	r2,-25752(gp)
 80101fc:	e0fffd17 	ldw	r3,-12(fp)
 8010200:	e1bffe17 	ldw	r6,-8(fp)
 8010204:	e17fff17 	ldw	r5,-4(fp)
 8010208:	1809883a 	mov	r4,r3
 801020c:	103ee83a 	callr	r2
 8010210:	00000206 	br	801021c <alt_instruction_exception_entry+0x4c>
   *    (a peripheral which negates its interrupt output before its
   *    interrupt handler has been executed will cause spurious interrupts)
   */
  else {
#ifdef NIOS2_HAS_DEBUG_STUB
    NIOS2_BREAK();
 8010214:	003da03a 	break	0
      ;
#endif /* NIOS2_HAS_DEBUG_STUB */
  }

  /* We should not get here. Remove compiler warning. */
  return NIOS2_EXCEPTION_RETURN_REISSUE_INST;
 8010218:	0005883a 	mov	r2,zero
}
 801021c:	e037883a 	mov	sp,fp
 8010220:	dfc00117 	ldw	ra,4(sp)
 8010224:	df000017 	ldw	fp,0(sp)
 8010228:	dec00204 	addi	sp,sp,8
 801022c:	f800283a 	ret

Disassembly of section .text:

04000000 <_start>:

    /*
     * Now that the caches are initialized, set up the stack pointer and global pointer.
     * The values provided by the linker are assumed to be correctly aligned.
     */
    movhi sp, %hi(__alt_stack_pointer)
 4000000:	06c20034 	movhi	sp,2048
    ori sp, sp, %lo(__alt_stack_pointer)
 4000004:	dec00014 	ori	sp,sp,0
    movhi gp, %hi(_gp)
 4000008:	06810074 	movhi	gp,1025
    ori gp, gp, %lo(_gp)
 400000c:	d6a51214 	ori	gp,gp,37960
 */
#ifndef ALT_SIM_OPTIMIZE
    /* Log that the BSS is about to be cleared. */
    ALT_LOG_PUTS(alt_log_msg_bss)

    movhi r2, %hi(__bss_start)
 4000010:	00810074 	movhi	r2,1025
    ori r2, r2, %lo(__bss_start)
 4000014:	108bdf14 	ori	r2,r2,12156

    movhi r3, %hi(__bss_end)
 4000018:	00c10074 	movhi	r3,1025
    ori r3, r3, %lo(__bss_end)
 400001c:	18cc3714 	ori	r3,r3,12508

    beq r2, r3, 1f
 4000020:	10c00326 	beq	r2,r3,4000030 <_start+0x30>

0:
    stw zero, (r2)
 4000024:	10000015 	stw	zero,0(r2)
    addi r2, r2, 4
 4000028:	10800104 	addi	r2,r2,4
    bltu r2, r3, 0b
 400002c:	10fffd36 	bltu	r2,r3,4000024 <__ram_exceptions_end+0xfbfefdf4>
     * section aren't defined until alt_load() has been called).
     */
    mov   et, zero
#endif

    call alt_load
 4000030:	400d3680 	call	400d368 <alt_load>

    /* Log that alt_main is about to be called. */
    ALT_LOG_PUTS(alt_log_msg_alt_main)

    /* Call the C entry point. It should never return. */
    call alt_main
 4000034:	400d5040 	call	400d504 <alt_main>

04000038 <alt_after_alt_main>:

    /* Wait in infinite loop in case alt_main does return. */
alt_after_alt_main:
    br alt_after_alt_main
 4000038:	003fff06 	br	4000038 <__ram_exceptions_end+0xfbfefe08>

0400003c <main>:
#define IMAGE_SIZE   IMAGE_WIDTH * IMAGE_HEIGHT

volatile uint32_t * image_data = 0x06000000;

int main()
{
 400003c:	defffd04 	addi	sp,sp,-12
 4000040:	dfc00215 	stw	ra,8(sp)
 4000044:	df000115 	stw	fp,4(sp)
 4000048:	df000104 	addi	fp,sp,4

	printf("Hello from Nios II!\n");
 400004c:	01010074 	movhi	r4,1025
 4000050:	213d9e04 	addi	r4,r4,-2440
 4000054:	40001d00 	call	40001d0 <puts>

	while (1){

		printf("%08X %08X %08X %08X\n", image_data[0], image_data[1], image_data[2], image_data[3]);
 4000058:	d0a00017 	ldw	r2,-32768(gp)
 400005c:	10c00017 	ldw	r3,0(r2)
 4000060:	d0a00017 	ldw	r2,-32768(gp)
 4000064:	10800104 	addi	r2,r2,4
 4000068:	11000017 	ldw	r4,0(r2)
 400006c:	d0a00017 	ldw	r2,-32768(gp)
 4000070:	10800204 	addi	r2,r2,8
 4000074:	11400017 	ldw	r5,0(r2)
 4000078:	d0a00017 	ldw	r2,-32768(gp)
 400007c:	10800304 	addi	r2,r2,12
 4000080:	10800017 	ldw	r2,0(r2)
 4000084:	d8800015 	stw	r2,0(sp)
 4000088:	280f883a 	mov	r7,r5
 400008c:	200d883a 	mov	r6,r4
 4000090:	180b883a 	mov	r5,r3
 4000094:	01010074 	movhi	r4,1025
 4000098:	213da304 	addi	r4,r4,-2420
 400009c:	40000d40 	call	40000d4 <printf>

	}
 40000a0:	003fed06 	br	4000058 <__ram_exceptions_end+0xfbfefe28>

040000a4 <_printf_r>:
 40000a4:	defffd04 	addi	sp,sp,-12
 40000a8:	2805883a 	mov	r2,r5
 40000ac:	dfc00015 	stw	ra,0(sp)
 40000b0:	d9800115 	stw	r6,4(sp)
 40000b4:	d9c00215 	stw	r7,8(sp)
 40000b8:	21400217 	ldw	r5,8(r4)
 40000bc:	d9c00104 	addi	r7,sp,4
 40000c0:	100d883a 	mov	r6,r2
 40000c4:	400027c0 	call	400027c <___vfprintf_internal_r>
 40000c8:	dfc00017 	ldw	ra,0(sp)
 40000cc:	dec00304 	addi	sp,sp,12
 40000d0:	f800283a 	ret

040000d4 <printf>:
 40000d4:	defffc04 	addi	sp,sp,-16
 40000d8:	dfc00015 	stw	ra,0(sp)
 40000dc:	d9400115 	stw	r5,4(sp)
 40000e0:	d9800215 	stw	r6,8(sp)
 40000e4:	d9c00315 	stw	r7,12(sp)
 40000e8:	00810074 	movhi	r2,1025
 40000ec:	10851404 	addi	r2,r2,5200
 40000f0:	10800017 	ldw	r2,0(r2)
 40000f4:	200b883a 	mov	r5,r4
 40000f8:	d9800104 	addi	r6,sp,4
 40000fc:	11000217 	ldw	r4,8(r2)
 4000100:	40025580 	call	4002558 <__vfprintf_internal>
 4000104:	dfc00017 	ldw	ra,0(sp)
 4000108:	dec00404 	addi	sp,sp,16
 400010c:	f800283a 	ret

04000110 <_puts_r>:
 4000110:	defff604 	addi	sp,sp,-40
 4000114:	dc000715 	stw	r16,28(sp)
 4000118:	2021883a 	mov	r16,r4
 400011c:	2809883a 	mov	r4,r5
 4000120:	dc400815 	stw	r17,32(sp)
 4000124:	dfc00915 	stw	ra,36(sp)
 4000128:	2823883a 	mov	r17,r5
 400012c:	40001e40 	call	40001e4 <strlen>
 4000130:	10c00044 	addi	r3,r2,1
 4000134:	d8800115 	stw	r2,4(sp)
 4000138:	00810074 	movhi	r2,1025
 400013c:	10bda904 	addi	r2,r2,-2396
 4000140:	d8800215 	stw	r2,8(sp)
 4000144:	00800044 	movi	r2,1
 4000148:	d8800315 	stw	r2,12(sp)
 400014c:	00800084 	movi	r2,2
 4000150:	dc400015 	stw	r17,0(sp)
 4000154:	d8c00615 	stw	r3,24(sp)
 4000158:	dec00415 	stw	sp,16(sp)
 400015c:	d8800515 	stw	r2,20(sp)
 4000160:	80000226 	beq	r16,zero,400016c <_puts_r+0x5c>
 4000164:	80800e17 	ldw	r2,56(r16)
 4000168:	10001426 	beq	r2,zero,40001bc <_puts_r+0xac>
 400016c:	81400217 	ldw	r5,8(r16)
 4000170:	2880030b 	ldhu	r2,12(r5)
 4000174:	10c8000c 	andi	r3,r2,8192
 4000178:	1800061e 	bne	r3,zero,4000194 <_puts_r+0x84>
 400017c:	29001917 	ldw	r4,100(r5)
 4000180:	00f7ffc4 	movi	r3,-8193
 4000184:	10880014 	ori	r2,r2,8192
 4000188:	20c6703a 	and	r3,r4,r3
 400018c:	2880030d 	sth	r2,12(r5)
 4000190:	28c01915 	stw	r3,100(r5)
 4000194:	d9800404 	addi	r6,sp,16
 4000198:	8009883a 	mov	r4,r16
 400019c:	4004ac00 	call	4004ac0 <__sfvwrite_r>
 40001a0:	1000091e 	bne	r2,zero,40001c8 <_puts_r+0xb8>
 40001a4:	00800284 	movi	r2,10
 40001a8:	dfc00917 	ldw	ra,36(sp)
 40001ac:	dc400817 	ldw	r17,32(sp)
 40001b0:	dc000717 	ldw	r16,28(sp)
 40001b4:	dec00a04 	addi	sp,sp,40
 40001b8:	f800283a 	ret
 40001bc:	8009883a 	mov	r4,r16
 40001c0:	400463c0 	call	400463c <__sinit>
 40001c4:	003fe906 	br	400016c <__ram_exceptions_end+0xfbfeff3c>
 40001c8:	00bfffc4 	movi	r2,-1
 40001cc:	003ff606 	br	40001a8 <__ram_exceptions_end+0xfbfeff78>

040001d0 <puts>:
 40001d0:	00810074 	movhi	r2,1025
 40001d4:	10851404 	addi	r2,r2,5200
 40001d8:	200b883a 	mov	r5,r4
 40001dc:	11000017 	ldw	r4,0(r2)
 40001e0:	40001101 	jmpi	4000110 <_puts_r>

040001e4 <strlen>:
 40001e4:	208000cc 	andi	r2,r4,3
 40001e8:	10002026 	beq	r2,zero,400026c <strlen+0x88>
 40001ec:	20800007 	ldb	r2,0(r4)
 40001f0:	10002026 	beq	r2,zero,4000274 <strlen+0x90>
 40001f4:	2005883a 	mov	r2,r4
 40001f8:	00000206 	br	4000204 <strlen+0x20>
 40001fc:	10c00007 	ldb	r3,0(r2)
 4000200:	18001826 	beq	r3,zero,4000264 <strlen+0x80>
 4000204:	10800044 	addi	r2,r2,1
 4000208:	10c000cc 	andi	r3,r2,3
 400020c:	183ffb1e 	bne	r3,zero,40001fc <__ram_exceptions_end+0xfbfeffcc>
 4000210:	10c00017 	ldw	r3,0(r2)
 4000214:	01ffbff4 	movhi	r7,65279
 4000218:	39ffbfc4 	addi	r7,r7,-257
 400021c:	00ca303a 	nor	r5,zero,r3
 4000220:	01a02074 	movhi	r6,32897
 4000224:	19c7883a 	add	r3,r3,r7
 4000228:	31a02004 	addi	r6,r6,-32640
 400022c:	1946703a 	and	r3,r3,r5
 4000230:	1986703a 	and	r3,r3,r6
 4000234:	1800091e 	bne	r3,zero,400025c <strlen+0x78>
 4000238:	10800104 	addi	r2,r2,4
 400023c:	10c00017 	ldw	r3,0(r2)
 4000240:	19cb883a 	add	r5,r3,r7
 4000244:	00c6303a 	nor	r3,zero,r3
 4000248:	28c6703a 	and	r3,r5,r3
 400024c:	1986703a 	and	r3,r3,r6
 4000250:	183ff926 	beq	r3,zero,4000238 <__ram_exceptions_end+0xfbff0008>
 4000254:	00000106 	br	400025c <strlen+0x78>
 4000258:	10800044 	addi	r2,r2,1
 400025c:	10c00007 	ldb	r3,0(r2)
 4000260:	183ffd1e 	bne	r3,zero,4000258 <__ram_exceptions_end+0xfbff0028>
 4000264:	1105c83a 	sub	r2,r2,r4
 4000268:	f800283a 	ret
 400026c:	2005883a 	mov	r2,r4
 4000270:	003fe706 	br	4000210 <__ram_exceptions_end+0xfbfeffe0>
 4000274:	0005883a 	mov	r2,zero
 4000278:	f800283a 	ret

0400027c <___vfprintf_internal_r>:
 400027c:	deffb804 	addi	sp,sp,-288
 4000280:	dfc04715 	stw	ra,284(sp)
 4000284:	ddc04515 	stw	r23,276(sp)
 4000288:	dd404315 	stw	r21,268(sp)
 400028c:	d9002d15 	stw	r4,180(sp)
 4000290:	282f883a 	mov	r23,r5
 4000294:	302b883a 	mov	r21,r6
 4000298:	d9c02e15 	stw	r7,184(sp)
 400029c:	df004615 	stw	fp,280(sp)
 40002a0:	dd804415 	stw	r22,272(sp)
 40002a4:	dd004215 	stw	r20,264(sp)
 40002a8:	dcc04115 	stw	r19,260(sp)
 40002ac:	dc804015 	stw	r18,256(sp)
 40002b0:	dc403f15 	stw	r17,252(sp)
 40002b4:	dc003e15 	stw	r16,248(sp)
 40002b8:	40051bc0 	call	40051bc <_localeconv_r>
 40002bc:	10800017 	ldw	r2,0(r2)
 40002c0:	1009883a 	mov	r4,r2
 40002c4:	d8803415 	stw	r2,208(sp)
 40002c8:	40001e40 	call	40001e4 <strlen>
 40002cc:	d8803715 	stw	r2,220(sp)
 40002d0:	d8802d17 	ldw	r2,180(sp)
 40002d4:	10000226 	beq	r2,zero,40002e0 <___vfprintf_internal_r+0x64>
 40002d8:	10800e17 	ldw	r2,56(r2)
 40002dc:	1000fb26 	beq	r2,zero,40006cc <___vfprintf_internal_r+0x450>
 40002e0:	b880030b 	ldhu	r2,12(r23)
 40002e4:	10c8000c 	andi	r3,r2,8192
 40002e8:	1800061e 	bne	r3,zero,4000304 <___vfprintf_internal_r+0x88>
 40002ec:	b9001917 	ldw	r4,100(r23)
 40002f0:	00f7ffc4 	movi	r3,-8193
 40002f4:	10880014 	ori	r2,r2,8192
 40002f8:	20c6703a 	and	r3,r4,r3
 40002fc:	b880030d 	sth	r2,12(r23)
 4000300:	b8c01915 	stw	r3,100(r23)
 4000304:	10c0020c 	andi	r3,r2,8
 4000308:	1800c326 	beq	r3,zero,4000618 <___vfprintf_internal_r+0x39c>
 400030c:	b8c00417 	ldw	r3,16(r23)
 4000310:	1800c126 	beq	r3,zero,4000618 <___vfprintf_internal_r+0x39c>
 4000314:	1080068c 	andi	r2,r2,26
 4000318:	00c00284 	movi	r3,10
 400031c:	10c0c626 	beq	r2,r3,4000638 <___vfprintf_internal_r+0x3bc>
 4000320:	d8c00404 	addi	r3,sp,16
 4000324:	05010074 	movhi	r20,1025
 4000328:	d9001e04 	addi	r4,sp,120
 400032c:	a53dba84 	addi	r20,r20,-2326
 4000330:	d8c01e15 	stw	r3,120(sp)
 4000334:	d8002015 	stw	zero,128(sp)
 4000338:	d8001f15 	stw	zero,124(sp)
 400033c:	d8003315 	stw	zero,204(sp)
 4000340:	d8003615 	stw	zero,216(sp)
 4000344:	d8003815 	stw	zero,224(sp)
 4000348:	1811883a 	mov	r8,r3
 400034c:	d8003915 	stw	zero,228(sp)
 4000350:	d8003a15 	stw	zero,232(sp)
 4000354:	d8002f15 	stw	zero,188(sp)
 4000358:	d9002815 	stw	r4,160(sp)
 400035c:	a8800007 	ldb	r2,0(r21)
 4000360:	10028b26 	beq	r2,zero,4000d90 <___vfprintf_internal_r+0xb14>
 4000364:	00c00944 	movi	r3,37
 4000368:	a823883a 	mov	r17,r21
 400036c:	10c0021e 	bne	r2,r3,4000378 <___vfprintf_internal_r+0xfc>
 4000370:	00001406 	br	40003c4 <___vfprintf_internal_r+0x148>
 4000374:	10c00326 	beq	r2,r3,4000384 <___vfprintf_internal_r+0x108>
 4000378:	8c400044 	addi	r17,r17,1
 400037c:	88800007 	ldb	r2,0(r17)
 4000380:	103ffc1e 	bne	r2,zero,4000374 <__ram_exceptions_end+0xfbff0144>
 4000384:	8d61c83a 	sub	r16,r17,r21
 4000388:	80000e26 	beq	r16,zero,40003c4 <___vfprintf_internal_r+0x148>
 400038c:	d8c02017 	ldw	r3,128(sp)
 4000390:	d8801f17 	ldw	r2,124(sp)
 4000394:	45400015 	stw	r21,0(r8)
 4000398:	1c07883a 	add	r3,r3,r16
 400039c:	10800044 	addi	r2,r2,1
 40003a0:	d8c02015 	stw	r3,128(sp)
 40003a4:	44000115 	stw	r16,4(r8)
 40003a8:	d8801f15 	stw	r2,124(sp)
 40003ac:	00c001c4 	movi	r3,7
 40003b0:	1880a916 	blt	r3,r2,4000658 <___vfprintf_internal_r+0x3dc>
 40003b4:	42000204 	addi	r8,r8,8
 40003b8:	d9402f17 	ldw	r5,188(sp)
 40003bc:	2c0b883a 	add	r5,r5,r16
 40003c0:	d9402f15 	stw	r5,188(sp)
 40003c4:	88800007 	ldb	r2,0(r17)
 40003c8:	1000aa26 	beq	r2,zero,4000674 <___vfprintf_internal_r+0x3f8>
 40003cc:	8d400044 	addi	r21,r17,1
 40003d0:	8c400047 	ldb	r17,1(r17)
 40003d4:	0021883a 	mov	r16,zero
 40003d8:	00bfffc4 	movi	r2,-1
 40003dc:	0025883a 	mov	r18,zero
 40003e0:	dc002905 	stb	r16,164(sp)
 40003e4:	d8002785 	stb	zero,158(sp)
 40003e8:	d8002b05 	stb	zero,172(sp)
 40003ec:	d8802a15 	stw	r2,168(sp)
 40003f0:	d8003115 	stw	zero,196(sp)
 40003f4:	04c01604 	movi	r19,88
 40003f8:	05800244 	movi	r22,9
 40003fc:	9021883a 	mov	r16,r18
 4000400:	4039883a 	mov	fp,r8
 4000404:	ad400044 	addi	r21,r21,1
 4000408:	88bff804 	addi	r2,r17,-32
 400040c:	98833236 	bltu	r19,r2,40010d8 <___vfprintf_internal_r+0xe5c>
 4000410:	100490ba 	slli	r2,r2,2
 4000414:	00c10034 	movhi	r3,1024
 4000418:	18c10a04 	addi	r3,r3,1064
 400041c:	10c5883a 	add	r2,r2,r3
 4000420:	10800017 	ldw	r2,0(r2)
 4000424:	1000683a 	jmp	r2
 4000428:	04000fd0 	cmplti	r16,zero,63
 400042c:	040010d8 	cmpnei	r16,zero,67
 4000430:	040010d8 	cmpnei	r16,zero,67
 4000434:	04000ff0 	cmpltui	r16,zero,63
 4000438:	040010d8 	cmpnei	r16,zero,67
 400043c:	040010d8 	cmpnei	r16,zero,67
 4000440:	040010d8 	cmpnei	r16,zero,67
 4000444:	040010d8 	cmpnei	r16,zero,67
 4000448:	040010d8 	cmpnei	r16,zero,67
 400044c:	040010d8 	cmpnei	r16,zero,67
 4000450:	040006d8 	cmpnei	r16,zero,27
 4000454:	04000ee0 	cmpeqi	r16,zero,59
 4000458:	040010d8 	cmpnei	r16,zero,67
 400045c:	0400059c 	xori	r16,zero,22
 4000460:	040006fc 	xorhi	r16,zero,27
 4000464:	040010d8 	cmpnei	r16,zero,67
 4000468:	0400074c 	andi	r16,zero,29
 400046c:	04000758 	cmpnei	r16,zero,29
 4000470:	04000758 	cmpnei	r16,zero,29
 4000474:	04000758 	cmpnei	r16,zero,29
 4000478:	04000758 	cmpnei	r16,zero,29
 400047c:	04000758 	cmpnei	r16,zero,29
 4000480:	04000758 	cmpnei	r16,zero,29
 4000484:	04000758 	cmpnei	r16,zero,29
 4000488:	04000758 	cmpnei	r16,zero,29
 400048c:	04000758 	cmpnei	r16,zero,29
 4000490:	040010d8 	cmpnei	r16,zero,67
 4000494:	040010d8 	cmpnei	r16,zero,67
 4000498:	040010d8 	cmpnei	r16,zero,67
 400049c:	040010d8 	cmpnei	r16,zero,67
 40004a0:	040010d8 	cmpnei	r16,zero,67
 40004a4:	040010d8 	cmpnei	r16,zero,67
 40004a8:	040010d8 	cmpnei	r16,zero,67
 40004ac:	040010d8 	cmpnei	r16,zero,67
 40004b0:	040010d8 	cmpnei	r16,zero,67
 40004b4:	040010d8 	cmpnei	r16,zero,67
 40004b8:	04000794 	movui	r16,30
 40004bc:	0400085c 	xori	r16,zero,33
 40004c0:	040010d8 	cmpnei	r16,zero,67
 40004c4:	0400085c 	xori	r16,zero,33
 40004c8:	040010d8 	cmpnei	r16,zero,67
 40004cc:	040010d8 	cmpnei	r16,zero,67
 40004d0:	040010d8 	cmpnei	r16,zero,67
 40004d4:	040010d8 	cmpnei	r16,zero,67
 40004d8:	04000908 	cmpgei	r16,zero,36
 40004dc:	040010d8 	cmpnei	r16,zero,67
 40004e0:	040010d8 	cmpnei	r16,zero,67
 40004e4:	04000914 	movui	r16,36
 40004e8:	040010d8 	cmpnei	r16,zero,67
 40004ec:	040010d8 	cmpnei	r16,zero,67
 40004f0:	040010d8 	cmpnei	r16,zero,67
 40004f4:	040010d8 	cmpnei	r16,zero,67
 40004f8:	040010d8 	cmpnei	r16,zero,67
 40004fc:	04000d98 	cmpnei	r16,zero,54
 4000500:	040010d8 	cmpnei	r16,zero,67
 4000504:	040010d8 	cmpnei	r16,zero,67
 4000508:	04000e04 	movi	r16,56
 400050c:	040010d8 	cmpnei	r16,zero,67
 4000510:	040010d8 	cmpnei	r16,zero,67
 4000514:	040010d8 	cmpnei	r16,zero,67
 4000518:	040010d8 	cmpnei	r16,zero,67
 400051c:	040010d8 	cmpnei	r16,zero,67
 4000520:	040010d8 	cmpnei	r16,zero,67
 4000524:	040010d8 	cmpnei	r16,zero,67
 4000528:	040010d8 	cmpnei	r16,zero,67
 400052c:	040010d8 	cmpnei	r16,zero,67
 4000530:	040010d8 	cmpnei	r16,zero,67
 4000534:	0400107c 	xorhi	r16,zero,65
 4000538:	04000ffc 	xorhi	r16,zero,63
 400053c:	0400085c 	xori	r16,zero,33
 4000540:	0400085c 	xori	r16,zero,33
 4000544:	0400085c 	xori	r16,zero,33
 4000548:	0400101c 	xori	r16,zero,64
 400054c:	04000ffc 	xorhi	r16,zero,63
 4000550:	040010d8 	cmpnei	r16,zero,67
 4000554:	040010d8 	cmpnei	r16,zero,67
 4000558:	04001028 	cmpgeui	r16,zero,64
 400055c:	040010d8 	cmpnei	r16,zero,67
 4000560:	0400103c 	xorhi	r16,zero,64
 4000564:	04000ec0 	call	4000ec <_start-0x3bfff14>
 4000568:	040005a8 	cmpgeui	r16,zero,22
 400056c:	04000ef8 	rdprs	r16,zero,59
 4000570:	040010d8 	cmpnei	r16,zero,67
 4000574:	04000f04 	movi	r16,60
 4000578:	040010d8 	cmpnei	r16,zero,67
 400057c:	04000f68 	cmpgeui	r16,zero,61
 4000580:	040010d8 	cmpnei	r16,zero,67
 4000584:	040010d8 	cmpnei	r16,zero,67
 4000588:	04000f88 	cmpgei	r16,zero,62
 400058c:	d8c03117 	ldw	r3,196(sp)
 4000590:	d8802e15 	stw	r2,184(sp)
 4000594:	00c7c83a 	sub	r3,zero,r3
 4000598:	d8c03115 	stw	r3,196(sp)
 400059c:	84000114 	ori	r16,r16,4
 40005a0:	ac400007 	ldb	r17,0(r21)
 40005a4:	003f9706 	br	4000404 <__ram_exceptions_end+0xfbff01d4>
 40005a8:	00800c04 	movi	r2,48
 40005ac:	d8802705 	stb	r2,156(sp)
 40005b0:	00801e04 	movi	r2,120
 40005b4:	d8802745 	stb	r2,157(sp)
 40005b8:	d9002a17 	ldw	r4,168(sp)
 40005bc:	d8802e17 	ldw	r2,184(sp)
 40005c0:	d8002785 	stb	zero,158(sp)
 40005c4:	e011883a 	mov	r8,fp
 40005c8:	10c00104 	addi	r3,r2,4
 40005cc:	14c00017 	ldw	r19,0(r2)
 40005d0:	002d883a 	mov	r22,zero
 40005d4:	80800094 	ori	r2,r16,2
 40005d8:	2002ca16 	blt	r4,zero,4001104 <___vfprintf_internal_r+0xe88>
 40005dc:	00bfdfc4 	movi	r2,-129
 40005e0:	80a4703a 	and	r18,r16,r2
 40005e4:	d8c02e15 	stw	r3,184(sp)
 40005e8:	94800094 	ori	r18,r18,2
 40005ec:	9802b41e 	bne	r19,zero,40010c0 <___vfprintf_internal_r+0xe44>
 40005f0:	01410074 	movhi	r5,1025
 40005f4:	297db304 	addi	r5,r5,-2356
 40005f8:	d9403915 	stw	r5,228(sp)
 40005fc:	04401e04 	movi	r17,120
 4000600:	d8802a17 	ldw	r2,168(sp)
 4000604:	0039883a 	mov	fp,zero
 4000608:	1001fa26 	beq	r2,zero,4000df4 <___vfprintf_internal_r+0xb78>
 400060c:	0027883a 	mov	r19,zero
 4000610:	002d883a 	mov	r22,zero
 4000614:	00021906 	br	4000e7c <___vfprintf_internal_r+0xc00>
 4000618:	d9002d17 	ldw	r4,180(sp)
 400061c:	b80b883a 	mov	r5,r23
 4000620:	40026300 	call	4002630 <__swsetup_r>
 4000624:	1005dc1e 	bne	r2,zero,4001d98 <___vfprintf_internal_r+0x1b1c>
 4000628:	b880030b 	ldhu	r2,12(r23)
 400062c:	00c00284 	movi	r3,10
 4000630:	1080068c 	andi	r2,r2,26
 4000634:	10ff3a1e 	bne	r2,r3,4000320 <__ram_exceptions_end+0xfbff00f0>
 4000638:	b880038f 	ldh	r2,14(r23)
 400063c:	103f3816 	blt	r2,zero,4000320 <__ram_exceptions_end+0xfbff00f0>
 4000640:	d9c02e17 	ldw	r7,184(sp)
 4000644:	d9002d17 	ldw	r4,180(sp)
 4000648:	a80d883a 	mov	r6,r21
 400064c:	b80b883a 	mov	r5,r23
 4000650:	40025740 	call	4002574 <__sbprintf>
 4000654:	00001106 	br	400069c <___vfprintf_internal_r+0x420>
 4000658:	d9002d17 	ldw	r4,180(sp)
 400065c:	d9801e04 	addi	r6,sp,120
 4000660:	b80b883a 	mov	r5,r23
 4000664:	4007a5c0 	call	4007a5c <__sprint_r>
 4000668:	1000081e 	bne	r2,zero,400068c <___vfprintf_internal_r+0x410>
 400066c:	da000404 	addi	r8,sp,16
 4000670:	003f5106 	br	40003b8 <__ram_exceptions_end+0xfbff0188>
 4000674:	d8802017 	ldw	r2,128(sp)
 4000678:	10000426 	beq	r2,zero,400068c <___vfprintf_internal_r+0x410>
 400067c:	d9002d17 	ldw	r4,180(sp)
 4000680:	d9801e04 	addi	r6,sp,120
 4000684:	b80b883a 	mov	r5,r23
 4000688:	4007a5c0 	call	4007a5c <__sprint_r>
 400068c:	b880030b 	ldhu	r2,12(r23)
 4000690:	1080100c 	andi	r2,r2,64
 4000694:	1005c01e 	bne	r2,zero,4001d98 <___vfprintf_internal_r+0x1b1c>
 4000698:	d8802f17 	ldw	r2,188(sp)
 400069c:	dfc04717 	ldw	ra,284(sp)
 40006a0:	df004617 	ldw	fp,280(sp)
 40006a4:	ddc04517 	ldw	r23,276(sp)
 40006a8:	dd804417 	ldw	r22,272(sp)
 40006ac:	dd404317 	ldw	r21,268(sp)
 40006b0:	dd004217 	ldw	r20,264(sp)
 40006b4:	dcc04117 	ldw	r19,260(sp)
 40006b8:	dc804017 	ldw	r18,256(sp)
 40006bc:	dc403f17 	ldw	r17,252(sp)
 40006c0:	dc003e17 	ldw	r16,248(sp)
 40006c4:	dec04804 	addi	sp,sp,288
 40006c8:	f800283a 	ret
 40006cc:	d9002d17 	ldw	r4,180(sp)
 40006d0:	400463c0 	call	400463c <__sinit>
 40006d4:	003f0206 	br	40002e0 <__ram_exceptions_end+0xfbff00b0>
 40006d8:	d9002e17 	ldw	r4,184(sp)
 40006dc:	d9402e17 	ldw	r5,184(sp)
 40006e0:	21000017 	ldw	r4,0(r4)
 40006e4:	28800104 	addi	r2,r5,4
 40006e8:	d9003115 	stw	r4,196(sp)
 40006ec:	203fa716 	blt	r4,zero,400058c <__ram_exceptions_end+0xfbff035c>
 40006f0:	d8802e15 	stw	r2,184(sp)
 40006f4:	ac400007 	ldb	r17,0(r21)
 40006f8:	003f4206 	br	4000404 <__ram_exceptions_end+0xfbff01d4>
 40006fc:	ac400007 	ldb	r17,0(r21)
 4000700:	01000a84 	movi	r4,42
 4000704:	a8c00044 	addi	r3,r21,1
 4000708:	89075826 	beq	r17,r4,400246c <___vfprintf_internal_r+0x21f0>
 400070c:	8cbff404 	addi	r18,r17,-48
 4000710:	b486ae36 	bltu	r22,r18,40021cc <___vfprintf_internal_r+0x1f50>
 4000714:	0009883a 	mov	r4,zero
 4000718:	1823883a 	mov	r17,r3
 400071c:	01400284 	movi	r5,10
 4000720:	400a7180 	call	400a718 <__mulsi3>
 4000724:	88c00007 	ldb	r3,0(r17)
 4000728:	1489883a 	add	r4,r2,r18
 400072c:	8d400044 	addi	r21,r17,1
 4000730:	1cbff404 	addi	r18,r3,-48
 4000734:	a823883a 	mov	r17,r21
 4000738:	b4bff82e 	bgeu	r22,r18,400071c <__ram_exceptions_end+0xfbff04ec>
 400073c:	1823883a 	mov	r17,r3
 4000740:	2005f616 	blt	r4,zero,4001f1c <___vfprintf_internal_r+0x1ca0>
 4000744:	d9002a15 	stw	r4,168(sp)
 4000748:	003f2f06 	br	4000408 <__ram_exceptions_end+0xfbff01d8>
 400074c:	84002014 	ori	r16,r16,128
 4000750:	ac400007 	ldb	r17,0(r21)
 4000754:	003f2b06 	br	4000404 <__ram_exceptions_end+0xfbff01d4>
 4000758:	8cbff404 	addi	r18,r17,-48
 400075c:	d8003115 	stw	zero,196(sp)
 4000760:	0009883a 	mov	r4,zero
 4000764:	a823883a 	mov	r17,r21
 4000768:	01400284 	movi	r5,10
 400076c:	400a7180 	call	400a718 <__mulsi3>
 4000770:	88c00007 	ldb	r3,0(r17)
 4000774:	9089883a 	add	r4,r18,r2
 4000778:	ad400044 	addi	r21,r21,1
 400077c:	1cbff404 	addi	r18,r3,-48
 4000780:	a823883a 	mov	r17,r21
 4000784:	b4bff82e 	bgeu	r22,r18,4000768 <__ram_exceptions_end+0xfbff0538>
 4000788:	1823883a 	mov	r17,r3
 400078c:	d9003115 	stw	r4,196(sp)
 4000790:	003f1d06 	br	4000408 <__ram_exceptions_end+0xfbff01d8>
 4000794:	8025883a 	mov	r18,r16
 4000798:	dc002903 	ldbu	r16,164(sp)
 400079c:	e011883a 	mov	r8,fp
 40007a0:	84003fcc 	andi	r16,r16,255
 40007a4:	8007531e 	bne	r16,zero,40024f4 <___vfprintf_internal_r+0x2278>
 40007a8:	94800414 	ori	r18,r18,16
 40007ac:	9080080c 	andi	r2,r18,32
 40007b0:	1003a326 	beq	r2,zero,4001640 <___vfprintf_internal_r+0x13c4>
 40007b4:	d9002e17 	ldw	r4,184(sp)
 40007b8:	20800117 	ldw	r2,4(r4)
 40007bc:	24c00017 	ldw	r19,0(r4)
 40007c0:	21000204 	addi	r4,r4,8
 40007c4:	d9002e15 	stw	r4,184(sp)
 40007c8:	102d883a 	mov	r22,r2
 40007cc:	10047316 	blt	r2,zero,400199c <___vfprintf_internal_r+0x1720>
 40007d0:	d9002a17 	ldw	r4,168(sp)
 40007d4:	df002783 	ldbu	fp,158(sp)
 40007d8:	2003e416 	blt	r4,zero,400176c <___vfprintf_internal_r+0x14f0>
 40007dc:	00ffdfc4 	movi	r3,-129
 40007e0:	9d84b03a 	or	r2,r19,r22
 40007e4:	90e4703a 	and	r18,r18,r3
 40007e8:	10018026 	beq	r2,zero,4000dec <___vfprintf_internal_r+0xb70>
 40007ec:	b003ab26 	beq	r22,zero,400169c <___vfprintf_internal_r+0x1420>
 40007f0:	dc402915 	stw	r17,164(sp)
 40007f4:	dc001e04 	addi	r16,sp,120
 40007f8:	b023883a 	mov	r17,r22
 40007fc:	402d883a 	mov	r22,r8
 4000800:	9809883a 	mov	r4,r19
 4000804:	880b883a 	mov	r5,r17
 4000808:	01800284 	movi	r6,10
 400080c:	000f883a 	mov	r7,zero
 4000810:	4009fa00 	call	4009fa0 <__umoddi3>
 4000814:	10800c04 	addi	r2,r2,48
 4000818:	843fffc4 	addi	r16,r16,-1
 400081c:	9809883a 	mov	r4,r19
 4000820:	880b883a 	mov	r5,r17
 4000824:	80800005 	stb	r2,0(r16)
 4000828:	01800284 	movi	r6,10
 400082c:	000f883a 	mov	r7,zero
 4000830:	40099a40 	call	40099a4 <__udivdi3>
 4000834:	1027883a 	mov	r19,r2
 4000838:	10c4b03a 	or	r2,r2,r3
 400083c:	1823883a 	mov	r17,r3
 4000840:	103fef1e 	bne	r2,zero,4000800 <__ram_exceptions_end+0xfbff05d0>
 4000844:	d8c02817 	ldw	r3,160(sp)
 4000848:	dc402917 	ldw	r17,164(sp)
 400084c:	b011883a 	mov	r8,r22
 4000850:	1c07c83a 	sub	r3,r3,r16
 4000854:	d8c02b15 	stw	r3,172(sp)
 4000858:	00005f06 	br	40009d8 <___vfprintf_internal_r+0x75c>
 400085c:	8025883a 	mov	r18,r16
 4000860:	dc002903 	ldbu	r16,164(sp)
 4000864:	e011883a 	mov	r8,fp
 4000868:	84003fcc 	andi	r16,r16,255
 400086c:	80071e1e 	bne	r16,zero,40024e8 <___vfprintf_internal_r+0x226c>
 4000870:	9080020c 	andi	r2,r18,8
 4000874:	1004af26 	beq	r2,zero,4001b34 <___vfprintf_internal_r+0x18b8>
 4000878:	d9002e17 	ldw	r4,184(sp)
 400087c:	d9402e17 	ldw	r5,184(sp)
 4000880:	d8802e17 	ldw	r2,184(sp)
 4000884:	21000017 	ldw	r4,0(r4)
 4000888:	29400117 	ldw	r5,4(r5)
 400088c:	10800204 	addi	r2,r2,8
 4000890:	d9003615 	stw	r4,216(sp)
 4000894:	d9403815 	stw	r5,224(sp)
 4000898:	d8802e15 	stw	r2,184(sp)
 400089c:	d9003617 	ldw	r4,216(sp)
 40008a0:	d9403817 	ldw	r5,224(sp)
 40008a4:	da003d15 	stw	r8,244(sp)
 40008a8:	04000044 	movi	r16,1
 40008ac:	40076800 	call	4007680 <__fpclassifyd>
 40008b0:	da003d17 	ldw	r8,244(sp)
 40008b4:	1404441e 	bne	r2,r16,40019c8 <___vfprintf_internal_r+0x174c>
 40008b8:	d9003617 	ldw	r4,216(sp)
 40008bc:	d9403817 	ldw	r5,224(sp)
 40008c0:	000d883a 	mov	r6,zero
 40008c4:	000f883a 	mov	r7,zero
 40008c8:	400bb200 	call	400bb20 <__ledf2>
 40008cc:	da003d17 	ldw	r8,244(sp)
 40008d0:	1005e316 	blt	r2,zero,4002060 <___vfprintf_internal_r+0x1de4>
 40008d4:	df002783 	ldbu	fp,158(sp)
 40008d8:	008011c4 	movi	r2,71
 40008dc:	1445580e 	bge	r2,r17,4001e40 <___vfprintf_internal_r+0x1bc4>
 40008e0:	04010074 	movhi	r16,1025
 40008e4:	843dab04 	addi	r16,r16,-2388
 40008e8:	00c000c4 	movi	r3,3
 40008ec:	00bfdfc4 	movi	r2,-129
 40008f0:	d8c02915 	stw	r3,164(sp)
 40008f4:	90a4703a 	and	r18,r18,r2
 40008f8:	d8c02b15 	stw	r3,172(sp)
 40008fc:	d8002a15 	stw	zero,168(sp)
 4000900:	d8003215 	stw	zero,200(sp)
 4000904:	00003a06 	br	40009f0 <___vfprintf_internal_r+0x774>
 4000908:	84000214 	ori	r16,r16,8
 400090c:	ac400007 	ldb	r17,0(r21)
 4000910:	003ebc06 	br	4000404 <__ram_exceptions_end+0xfbff01d4>
 4000914:	8025883a 	mov	r18,r16
 4000918:	dc002903 	ldbu	r16,164(sp)
 400091c:	e011883a 	mov	r8,fp
 4000920:	84003fcc 	andi	r16,r16,255
 4000924:	8007001e 	bne	r16,zero,4002528 <___vfprintf_internal_r+0x22ac>
 4000928:	94800414 	ori	r18,r18,16
 400092c:	9080080c 	andi	r2,r18,32
 4000930:	1002fa26 	beq	r2,zero,400151c <___vfprintf_internal_r+0x12a0>
 4000934:	d9002e17 	ldw	r4,184(sp)
 4000938:	d9402a17 	ldw	r5,168(sp)
 400093c:	d8002785 	stb	zero,158(sp)
 4000940:	20800204 	addi	r2,r4,8
 4000944:	24c00017 	ldw	r19,0(r4)
 4000948:	25800117 	ldw	r22,4(r4)
 400094c:	2804b116 	blt	r5,zero,4001c14 <___vfprintf_internal_r+0x1998>
 4000950:	013fdfc4 	movi	r4,-129
 4000954:	9d86b03a 	or	r3,r19,r22
 4000958:	d8802e15 	stw	r2,184(sp)
 400095c:	9124703a 	and	r18,r18,r4
 4000960:	1802fb1e 	bne	r3,zero,4001550 <___vfprintf_internal_r+0x12d4>
 4000964:	d8c02a17 	ldw	r3,168(sp)
 4000968:	0039883a 	mov	fp,zero
 400096c:	1805e526 	beq	r3,zero,4002104 <___vfprintf_internal_r+0x1e88>
 4000970:	0027883a 	mov	r19,zero
 4000974:	002d883a 	mov	r22,zero
 4000978:	dc001e04 	addi	r16,sp,120
 400097c:	9806d0fa 	srli	r3,r19,3
 4000980:	b008977a 	slli	r4,r22,29
 4000984:	b02cd0fa 	srli	r22,r22,3
 4000988:	9cc001cc 	andi	r19,r19,7
 400098c:	98800c04 	addi	r2,r19,48
 4000990:	843fffc4 	addi	r16,r16,-1
 4000994:	20e6b03a 	or	r19,r4,r3
 4000998:	80800005 	stb	r2,0(r16)
 400099c:	9d86b03a 	or	r3,r19,r22
 40009a0:	183ff61e 	bne	r3,zero,400097c <__ram_exceptions_end+0xfbff074c>
 40009a4:	90c0004c 	andi	r3,r18,1
 40009a8:	18014126 	beq	r3,zero,4000eb0 <___vfprintf_internal_r+0xc34>
 40009ac:	10803fcc 	andi	r2,r2,255
 40009b0:	1080201c 	xori	r2,r2,128
 40009b4:	10bfe004 	addi	r2,r2,-128
 40009b8:	00c00c04 	movi	r3,48
 40009bc:	10c13c26 	beq	r2,r3,4000eb0 <___vfprintf_internal_r+0xc34>
 40009c0:	80ffffc5 	stb	r3,-1(r16)
 40009c4:	d8c02817 	ldw	r3,160(sp)
 40009c8:	80bfffc4 	addi	r2,r16,-1
 40009cc:	1021883a 	mov	r16,r2
 40009d0:	1887c83a 	sub	r3,r3,r2
 40009d4:	d8c02b15 	stw	r3,172(sp)
 40009d8:	d8802b17 	ldw	r2,172(sp)
 40009dc:	d9002a17 	ldw	r4,168(sp)
 40009e0:	1100010e 	bge	r2,r4,40009e8 <___vfprintf_internal_r+0x76c>
 40009e4:	2005883a 	mov	r2,r4
 40009e8:	d8802915 	stw	r2,164(sp)
 40009ec:	d8003215 	stw	zero,200(sp)
 40009f0:	e7003fcc 	andi	fp,fp,255
 40009f4:	e700201c 	xori	fp,fp,128
 40009f8:	e73fe004 	addi	fp,fp,-128
 40009fc:	e0000326 	beq	fp,zero,4000a0c <___vfprintf_internal_r+0x790>
 4000a00:	d8c02917 	ldw	r3,164(sp)
 4000a04:	18c00044 	addi	r3,r3,1
 4000a08:	d8c02915 	stw	r3,164(sp)
 4000a0c:	90c0008c 	andi	r3,r18,2
 4000a10:	d8c02c15 	stw	r3,176(sp)
 4000a14:	18000326 	beq	r3,zero,4000a24 <___vfprintf_internal_r+0x7a8>
 4000a18:	d8c02917 	ldw	r3,164(sp)
 4000a1c:	18c00084 	addi	r3,r3,2
 4000a20:	d8c02915 	stw	r3,164(sp)
 4000a24:	90c0210c 	andi	r3,r18,132
 4000a28:	d8c03015 	stw	r3,192(sp)
 4000a2c:	1801c51e 	bne	r3,zero,4001144 <___vfprintf_internal_r+0xec8>
 4000a30:	d9003117 	ldw	r4,196(sp)
 4000a34:	d8c02917 	ldw	r3,164(sp)
 4000a38:	20e7c83a 	sub	r19,r4,r3
 4000a3c:	04c1c10e 	bge	zero,r19,4001144 <___vfprintf_internal_r+0xec8>
 4000a40:	02400404 	movi	r9,16
 4000a44:	d8c02017 	ldw	r3,128(sp)
 4000a48:	d8801f17 	ldw	r2,124(sp)
 4000a4c:	4cc52f0e 	bge	r9,r19,4001f0c <___vfprintf_internal_r+0x1c90>
 4000a50:	01410074 	movhi	r5,1025
 4000a54:	297dbe84 	addi	r5,r5,-2310
 4000a58:	dc403b15 	stw	r17,236(sp)
 4000a5c:	d9403515 	stw	r5,212(sp)
 4000a60:	9823883a 	mov	r17,r19
 4000a64:	482d883a 	mov	r22,r9
 4000a68:	9027883a 	mov	r19,r18
 4000a6c:	070001c4 	movi	fp,7
 4000a70:	8025883a 	mov	r18,r16
 4000a74:	dc002d17 	ldw	r16,180(sp)
 4000a78:	00000306 	br	4000a88 <___vfprintf_internal_r+0x80c>
 4000a7c:	8c7ffc04 	addi	r17,r17,-16
 4000a80:	42000204 	addi	r8,r8,8
 4000a84:	b440130e 	bge	r22,r17,4000ad4 <___vfprintf_internal_r+0x858>
 4000a88:	01010074 	movhi	r4,1025
 4000a8c:	18c00404 	addi	r3,r3,16
 4000a90:	10800044 	addi	r2,r2,1
 4000a94:	213dbe84 	addi	r4,r4,-2310
 4000a98:	41000015 	stw	r4,0(r8)
 4000a9c:	45800115 	stw	r22,4(r8)
 4000aa0:	d8c02015 	stw	r3,128(sp)
 4000aa4:	d8801f15 	stw	r2,124(sp)
 4000aa8:	e0bff40e 	bge	fp,r2,4000a7c <__ram_exceptions_end+0xfbff084c>
 4000aac:	d9801e04 	addi	r6,sp,120
 4000ab0:	b80b883a 	mov	r5,r23
 4000ab4:	8009883a 	mov	r4,r16
 4000ab8:	4007a5c0 	call	4007a5c <__sprint_r>
 4000abc:	103ef31e 	bne	r2,zero,400068c <__ram_exceptions_end+0xfbff045c>
 4000ac0:	8c7ffc04 	addi	r17,r17,-16
 4000ac4:	d8c02017 	ldw	r3,128(sp)
 4000ac8:	d8801f17 	ldw	r2,124(sp)
 4000acc:	da000404 	addi	r8,sp,16
 4000ad0:	b47fed16 	blt	r22,r17,4000a88 <__ram_exceptions_end+0xfbff0858>
 4000ad4:	9021883a 	mov	r16,r18
 4000ad8:	9825883a 	mov	r18,r19
 4000adc:	8827883a 	mov	r19,r17
 4000ae0:	dc403b17 	ldw	r17,236(sp)
 4000ae4:	d9403517 	ldw	r5,212(sp)
 4000ae8:	98c7883a 	add	r3,r19,r3
 4000aec:	10800044 	addi	r2,r2,1
 4000af0:	41400015 	stw	r5,0(r8)
 4000af4:	44c00115 	stw	r19,4(r8)
 4000af8:	d8c02015 	stw	r3,128(sp)
 4000afc:	d8801f15 	stw	r2,124(sp)
 4000b00:	010001c4 	movi	r4,7
 4000b04:	2082c516 	blt	r4,r2,400161c <___vfprintf_internal_r+0x13a0>
 4000b08:	df002787 	ldb	fp,158(sp)
 4000b0c:	42000204 	addi	r8,r8,8
 4000b10:	e0000c26 	beq	fp,zero,4000b44 <___vfprintf_internal_r+0x8c8>
 4000b14:	d8801f17 	ldw	r2,124(sp)
 4000b18:	d9002784 	addi	r4,sp,158
 4000b1c:	18c00044 	addi	r3,r3,1
 4000b20:	10800044 	addi	r2,r2,1
 4000b24:	41000015 	stw	r4,0(r8)
 4000b28:	01000044 	movi	r4,1
 4000b2c:	41000115 	stw	r4,4(r8)
 4000b30:	d8c02015 	stw	r3,128(sp)
 4000b34:	d8801f15 	stw	r2,124(sp)
 4000b38:	010001c4 	movi	r4,7
 4000b3c:	20825e16 	blt	r4,r2,40014b8 <___vfprintf_internal_r+0x123c>
 4000b40:	42000204 	addi	r8,r8,8
 4000b44:	d8802c17 	ldw	r2,176(sp)
 4000b48:	10000c26 	beq	r2,zero,4000b7c <___vfprintf_internal_r+0x900>
 4000b4c:	d8801f17 	ldw	r2,124(sp)
 4000b50:	d9002704 	addi	r4,sp,156
 4000b54:	18c00084 	addi	r3,r3,2
 4000b58:	10800044 	addi	r2,r2,1
 4000b5c:	41000015 	stw	r4,0(r8)
 4000b60:	01000084 	movi	r4,2
 4000b64:	41000115 	stw	r4,4(r8)
 4000b68:	d8c02015 	stw	r3,128(sp)
 4000b6c:	d8801f15 	stw	r2,124(sp)
 4000b70:	010001c4 	movi	r4,7
 4000b74:	20825816 	blt	r4,r2,40014d8 <___vfprintf_internal_r+0x125c>
 4000b78:	42000204 	addi	r8,r8,8
 4000b7c:	d9003017 	ldw	r4,192(sp)
 4000b80:	00802004 	movi	r2,128
 4000b84:	2081bb26 	beq	r4,r2,4001274 <___vfprintf_internal_r+0xff8>
 4000b88:	d9402a17 	ldw	r5,168(sp)
 4000b8c:	d8802b17 	ldw	r2,172(sp)
 4000b90:	28adc83a 	sub	r22,r5,r2
 4000b94:	0580310e 	bge	zero,r22,4000c5c <___vfprintf_internal_r+0x9e0>
 4000b98:	07000404 	movi	fp,16
 4000b9c:	d8801f17 	ldw	r2,124(sp)
 4000ba0:	e584360e 	bge	fp,r22,4001c7c <___vfprintf_internal_r+0x1a00>
 4000ba4:	01410074 	movhi	r5,1025
 4000ba8:	297dba84 	addi	r5,r5,-2326
 4000bac:	dc402a15 	stw	r17,168(sp)
 4000bb0:	d9402c15 	stw	r5,176(sp)
 4000bb4:	b023883a 	mov	r17,r22
 4000bb8:	04c001c4 	movi	r19,7
 4000bbc:	a82d883a 	mov	r22,r21
 4000bc0:	902b883a 	mov	r21,r18
 4000bc4:	8025883a 	mov	r18,r16
 4000bc8:	dc002d17 	ldw	r16,180(sp)
 4000bcc:	00000306 	br	4000bdc <___vfprintf_internal_r+0x960>
 4000bd0:	8c7ffc04 	addi	r17,r17,-16
 4000bd4:	42000204 	addi	r8,r8,8
 4000bd8:	e440110e 	bge	fp,r17,4000c20 <___vfprintf_internal_r+0x9a4>
 4000bdc:	18c00404 	addi	r3,r3,16
 4000be0:	10800044 	addi	r2,r2,1
 4000be4:	45000015 	stw	r20,0(r8)
 4000be8:	47000115 	stw	fp,4(r8)
 4000bec:	d8c02015 	stw	r3,128(sp)
 4000bf0:	d8801f15 	stw	r2,124(sp)
 4000bf4:	98bff60e 	bge	r19,r2,4000bd0 <__ram_exceptions_end+0xfbff09a0>
 4000bf8:	d9801e04 	addi	r6,sp,120
 4000bfc:	b80b883a 	mov	r5,r23
 4000c00:	8009883a 	mov	r4,r16
 4000c04:	4007a5c0 	call	4007a5c <__sprint_r>
 4000c08:	103ea01e 	bne	r2,zero,400068c <__ram_exceptions_end+0xfbff045c>
 4000c0c:	8c7ffc04 	addi	r17,r17,-16
 4000c10:	d8c02017 	ldw	r3,128(sp)
 4000c14:	d8801f17 	ldw	r2,124(sp)
 4000c18:	da000404 	addi	r8,sp,16
 4000c1c:	e47fef16 	blt	fp,r17,4000bdc <__ram_exceptions_end+0xfbff09ac>
 4000c20:	9021883a 	mov	r16,r18
 4000c24:	a825883a 	mov	r18,r21
 4000c28:	b02b883a 	mov	r21,r22
 4000c2c:	882d883a 	mov	r22,r17
 4000c30:	dc402a17 	ldw	r17,168(sp)
 4000c34:	d9002c17 	ldw	r4,176(sp)
 4000c38:	1d87883a 	add	r3,r3,r22
 4000c3c:	10800044 	addi	r2,r2,1
 4000c40:	41000015 	stw	r4,0(r8)
 4000c44:	45800115 	stw	r22,4(r8)
 4000c48:	d8c02015 	stw	r3,128(sp)
 4000c4c:	d8801f15 	stw	r2,124(sp)
 4000c50:	010001c4 	movi	r4,7
 4000c54:	20821016 	blt	r4,r2,4001498 <___vfprintf_internal_r+0x121c>
 4000c58:	42000204 	addi	r8,r8,8
 4000c5c:	9080400c 	andi	r2,r18,256
 4000c60:	10013a1e 	bne	r2,zero,400114c <___vfprintf_internal_r+0xed0>
 4000c64:	d9402b17 	ldw	r5,172(sp)
 4000c68:	d8801f17 	ldw	r2,124(sp)
 4000c6c:	44000015 	stw	r16,0(r8)
 4000c70:	1947883a 	add	r3,r3,r5
 4000c74:	10800044 	addi	r2,r2,1
 4000c78:	41400115 	stw	r5,4(r8)
 4000c7c:	d8c02015 	stw	r3,128(sp)
 4000c80:	d8801f15 	stw	r2,124(sp)
 4000c84:	010001c4 	movi	r4,7
 4000c88:	2081f516 	blt	r4,r2,4001460 <___vfprintf_internal_r+0x11e4>
 4000c8c:	42000204 	addi	r8,r8,8
 4000c90:	9480010c 	andi	r18,r18,4
 4000c94:	90003226 	beq	r18,zero,4000d60 <___vfprintf_internal_r+0xae4>
 4000c98:	d9403117 	ldw	r5,196(sp)
 4000c9c:	d8802917 	ldw	r2,164(sp)
 4000ca0:	28a1c83a 	sub	r16,r5,r2
 4000ca4:	04002e0e 	bge	zero,r16,4000d60 <___vfprintf_internal_r+0xae4>
 4000ca8:	04400404 	movi	r17,16
 4000cac:	d8801f17 	ldw	r2,124(sp)
 4000cb0:	8c04c40e 	bge	r17,r16,4001fc4 <___vfprintf_internal_r+0x1d48>
 4000cb4:	01410074 	movhi	r5,1025
 4000cb8:	297dbe84 	addi	r5,r5,-2310
 4000cbc:	d9403515 	stw	r5,212(sp)
 4000cc0:	048001c4 	movi	r18,7
 4000cc4:	dcc02d17 	ldw	r19,180(sp)
 4000cc8:	00000306 	br	4000cd8 <___vfprintf_internal_r+0xa5c>
 4000ccc:	843ffc04 	addi	r16,r16,-16
 4000cd0:	42000204 	addi	r8,r8,8
 4000cd4:	8c00130e 	bge	r17,r16,4000d24 <___vfprintf_internal_r+0xaa8>
 4000cd8:	01010074 	movhi	r4,1025
 4000cdc:	18c00404 	addi	r3,r3,16
 4000ce0:	10800044 	addi	r2,r2,1
 4000ce4:	213dbe84 	addi	r4,r4,-2310
 4000ce8:	41000015 	stw	r4,0(r8)
 4000cec:	44400115 	stw	r17,4(r8)
 4000cf0:	d8c02015 	stw	r3,128(sp)
 4000cf4:	d8801f15 	stw	r2,124(sp)
 4000cf8:	90bff40e 	bge	r18,r2,4000ccc <__ram_exceptions_end+0xfbff0a9c>
 4000cfc:	d9801e04 	addi	r6,sp,120
 4000d00:	b80b883a 	mov	r5,r23
 4000d04:	9809883a 	mov	r4,r19
 4000d08:	4007a5c0 	call	4007a5c <__sprint_r>
 4000d0c:	103e5f1e 	bne	r2,zero,400068c <__ram_exceptions_end+0xfbff045c>
 4000d10:	843ffc04 	addi	r16,r16,-16
 4000d14:	d8c02017 	ldw	r3,128(sp)
 4000d18:	d8801f17 	ldw	r2,124(sp)
 4000d1c:	da000404 	addi	r8,sp,16
 4000d20:	8c3fed16 	blt	r17,r16,4000cd8 <__ram_exceptions_end+0xfbff0aa8>
 4000d24:	d9403517 	ldw	r5,212(sp)
 4000d28:	1c07883a 	add	r3,r3,r16
 4000d2c:	10800044 	addi	r2,r2,1
 4000d30:	41400015 	stw	r5,0(r8)
 4000d34:	44000115 	stw	r16,4(r8)
 4000d38:	d8c02015 	stw	r3,128(sp)
 4000d3c:	d8801f15 	stw	r2,124(sp)
 4000d40:	010001c4 	movi	r4,7
 4000d44:	2080060e 	bge	r4,r2,4000d60 <___vfprintf_internal_r+0xae4>
 4000d48:	d9002d17 	ldw	r4,180(sp)
 4000d4c:	d9801e04 	addi	r6,sp,120
 4000d50:	b80b883a 	mov	r5,r23
 4000d54:	4007a5c0 	call	4007a5c <__sprint_r>
 4000d58:	103e4c1e 	bne	r2,zero,400068c <__ram_exceptions_end+0xfbff045c>
 4000d5c:	d8c02017 	ldw	r3,128(sp)
 4000d60:	d8803117 	ldw	r2,196(sp)
 4000d64:	d9002917 	ldw	r4,164(sp)
 4000d68:	1100010e 	bge	r2,r4,4000d70 <___vfprintf_internal_r+0xaf4>
 4000d6c:	2005883a 	mov	r2,r4
 4000d70:	d9402f17 	ldw	r5,188(sp)
 4000d74:	288b883a 	add	r5,r5,r2
 4000d78:	d9402f15 	stw	r5,188(sp)
 4000d7c:	1801c01e 	bne	r3,zero,4001480 <___vfprintf_internal_r+0x1204>
 4000d80:	a8800007 	ldb	r2,0(r21)
 4000d84:	d8001f15 	stw	zero,124(sp)
 4000d88:	da000404 	addi	r8,sp,16
 4000d8c:	103d751e 	bne	r2,zero,4000364 <__ram_exceptions_end+0xfbff0134>
 4000d90:	a823883a 	mov	r17,r21
 4000d94:	003d8b06 	br	40003c4 <__ram_exceptions_end+0xfbff0194>
 4000d98:	8025883a 	mov	r18,r16
 4000d9c:	dc002903 	ldbu	r16,164(sp)
 4000da0:	e011883a 	mov	r8,fp
 4000da4:	84003fcc 	andi	r16,r16,255
 4000da8:	8005e51e 	bne	r16,zero,4002540 <___vfprintf_internal_r+0x22c4>
 4000dac:	94800414 	ori	r18,r18,16
 4000db0:	9080080c 	andi	r2,r18,32
 4000db4:	10022b26 	beq	r2,zero,4001664 <___vfprintf_internal_r+0x13e8>
 4000db8:	d9002e17 	ldw	r4,184(sp)
 4000dbc:	d9402a17 	ldw	r5,168(sp)
 4000dc0:	d8002785 	stb	zero,158(sp)
 4000dc4:	20c00204 	addi	r3,r4,8
 4000dc8:	24c00017 	ldw	r19,0(r4)
 4000dcc:	25800117 	ldw	r22,4(r4)
 4000dd0:	28042e16 	blt	r5,zero,4001e8c <___vfprintf_internal_r+0x1c10>
 4000dd4:	013fdfc4 	movi	r4,-129
 4000dd8:	9d84b03a 	or	r2,r19,r22
 4000ddc:	d8c02e15 	stw	r3,184(sp)
 4000de0:	9124703a 	and	r18,r18,r4
 4000de4:	0039883a 	mov	fp,zero
 4000de8:	103e801e 	bne	r2,zero,40007ec <__ram_exceptions_end+0xfbff05bc>
 4000dec:	d9002a17 	ldw	r4,168(sp)
 4000df0:	2002e01e 	bne	r4,zero,4001974 <___vfprintf_internal_r+0x16f8>
 4000df4:	d8002a15 	stw	zero,168(sp)
 4000df8:	d8002b15 	stw	zero,172(sp)
 4000dfc:	dc001e04 	addi	r16,sp,120
 4000e00:	003ef506 	br	40009d8 <__ram_exceptions_end+0xfbff07a8>
 4000e04:	8025883a 	mov	r18,r16
 4000e08:	dc002903 	ldbu	r16,164(sp)
 4000e0c:	e011883a 	mov	r8,fp
 4000e10:	84003fcc 	andi	r16,r16,255
 4000e14:	8005ba1e 	bne	r16,zero,4002500 <___vfprintf_internal_r+0x2284>
 4000e18:	01010074 	movhi	r4,1025
 4000e1c:	213dae04 	addi	r4,r4,-2376
 4000e20:	d9003915 	stw	r4,228(sp)
 4000e24:	9080080c 	andi	r2,r18,32
 4000e28:	10006126 	beq	r2,zero,4000fb0 <___vfprintf_internal_r+0xd34>
 4000e2c:	d9402e17 	ldw	r5,184(sp)
 4000e30:	2cc00017 	ldw	r19,0(r5)
 4000e34:	2d800117 	ldw	r22,4(r5)
 4000e38:	29400204 	addi	r5,r5,8
 4000e3c:	d9402e15 	stw	r5,184(sp)
 4000e40:	9080004c 	andi	r2,r18,1
 4000e44:	1001ac26 	beq	r2,zero,40014f8 <___vfprintf_internal_r+0x127c>
 4000e48:	9d84b03a 	or	r2,r19,r22
 4000e4c:	10038526 	beq	r2,zero,4001c64 <___vfprintf_internal_r+0x19e8>
 4000e50:	d8c02a17 	ldw	r3,168(sp)
 4000e54:	00800c04 	movi	r2,48
 4000e58:	d8802705 	stb	r2,156(sp)
 4000e5c:	dc402745 	stb	r17,157(sp)
 4000e60:	d8002785 	stb	zero,158(sp)
 4000e64:	90800094 	ori	r2,r18,2
 4000e68:	18047916 	blt	r3,zero,4002050 <___vfprintf_internal_r+0x1dd4>
 4000e6c:	00bfdfc4 	movi	r2,-129
 4000e70:	90a4703a 	and	r18,r18,r2
 4000e74:	94800094 	ori	r18,r18,2
 4000e78:	0039883a 	mov	fp,zero
 4000e7c:	d9003917 	ldw	r4,228(sp)
 4000e80:	dc001e04 	addi	r16,sp,120
 4000e84:	988003cc 	andi	r2,r19,15
 4000e88:	b006973a 	slli	r3,r22,28
 4000e8c:	2085883a 	add	r2,r4,r2
 4000e90:	9826d13a 	srli	r19,r19,4
 4000e94:	10800003 	ldbu	r2,0(r2)
 4000e98:	b02cd13a 	srli	r22,r22,4
 4000e9c:	843fffc4 	addi	r16,r16,-1
 4000ea0:	1ce6b03a 	or	r19,r3,r19
 4000ea4:	80800005 	stb	r2,0(r16)
 4000ea8:	9d84b03a 	or	r2,r19,r22
 4000eac:	103ff51e 	bne	r2,zero,4000e84 <__ram_exceptions_end+0xfbff0c54>
 4000eb0:	d8c02817 	ldw	r3,160(sp)
 4000eb4:	1c07c83a 	sub	r3,r3,r16
 4000eb8:	d8c02b15 	stw	r3,172(sp)
 4000ebc:	003ec606 	br	40009d8 <__ram_exceptions_end+0xfbff07a8>
 4000ec0:	8025883a 	mov	r18,r16
 4000ec4:	dc002903 	ldbu	r16,164(sp)
 4000ec8:	e011883a 	mov	r8,fp
 4000ecc:	84003fcc 	andi	r16,r16,255
 4000ed0:	803e9626 	beq	r16,zero,400092c <__ram_exceptions_end+0xfbff06fc>
 4000ed4:	d8c02b03 	ldbu	r3,172(sp)
 4000ed8:	d8c02785 	stb	r3,158(sp)
 4000edc:	003e9306 	br	400092c <__ram_exceptions_end+0xfbff06fc>
 4000ee0:	00c00044 	movi	r3,1
 4000ee4:	d8c02905 	stb	r3,164(sp)
 4000ee8:	00c00ac4 	movi	r3,43
 4000eec:	d8c02b05 	stb	r3,172(sp)
 4000ef0:	ac400007 	ldb	r17,0(r21)
 4000ef4:	003d4306 	br	4000404 <__ram_exceptions_end+0xfbff01d4>
 4000ef8:	84000814 	ori	r16,r16,32
 4000efc:	ac400007 	ldb	r17,0(r21)
 4000f00:	003d4006 	br	4000404 <__ram_exceptions_end+0xfbff01d4>
 4000f04:	d8802e17 	ldw	r2,184(sp)
 4000f08:	8025883a 	mov	r18,r16
 4000f0c:	d8002785 	stb	zero,158(sp)
 4000f10:	14000017 	ldw	r16,0(r2)
 4000f14:	e011883a 	mov	r8,fp
 4000f18:	14c00104 	addi	r19,r2,4
 4000f1c:	80042d26 	beq	r16,zero,4001fd4 <___vfprintf_internal_r+0x1d58>
 4000f20:	d8c02a17 	ldw	r3,168(sp)
 4000f24:	1803e416 	blt	r3,zero,4001eb8 <___vfprintf_internal_r+0x1c3c>
 4000f28:	180d883a 	mov	r6,r3
 4000f2c:	000b883a 	mov	r5,zero
 4000f30:	8009883a 	mov	r4,r16
 4000f34:	df003d15 	stw	fp,244(sp)
 4000f38:	4005bb40 	call	4005bb4 <memchr>
 4000f3c:	da003d17 	ldw	r8,244(sp)
 4000f40:	10046826 	beq	r2,zero,40020e4 <___vfprintf_internal_r+0x1e68>
 4000f44:	1405c83a 	sub	r2,r2,r16
 4000f48:	d8802b15 	stw	r2,172(sp)
 4000f4c:	1003e016 	blt	r2,zero,4001ed0 <___vfprintf_internal_r+0x1c54>
 4000f50:	df002783 	ldbu	fp,158(sp)
 4000f54:	d8802915 	stw	r2,164(sp)
 4000f58:	dcc02e15 	stw	r19,184(sp)
 4000f5c:	d8002a15 	stw	zero,168(sp)
 4000f60:	d8003215 	stw	zero,200(sp)
 4000f64:	003ea206 	br	40009f0 <__ram_exceptions_end+0xfbff07c0>
 4000f68:	8025883a 	mov	r18,r16
 4000f6c:	dc002903 	ldbu	r16,164(sp)
 4000f70:	e011883a 	mov	r8,fp
 4000f74:	84003fcc 	andi	r16,r16,255
 4000f78:	803f8d26 	beq	r16,zero,4000db0 <__ram_exceptions_end+0xfbff0b80>
 4000f7c:	d8c02b03 	ldbu	r3,172(sp)
 4000f80:	d8c02785 	stb	r3,158(sp)
 4000f84:	003f8a06 	br	4000db0 <__ram_exceptions_end+0xfbff0b80>
 4000f88:	8025883a 	mov	r18,r16
 4000f8c:	dc002903 	ldbu	r16,164(sp)
 4000f90:	e011883a 	mov	r8,fp
 4000f94:	84003fcc 	andi	r16,r16,255
 4000f98:	8005661e 	bne	r16,zero,4002534 <___vfprintf_internal_r+0x22b8>
 4000f9c:	01010074 	movhi	r4,1025
 4000fa0:	213db304 	addi	r4,r4,-2356
 4000fa4:	d9003915 	stw	r4,228(sp)
 4000fa8:	9080080c 	andi	r2,r18,32
 4000fac:	103f9f1e 	bne	r2,zero,4000e2c <__ram_exceptions_end+0xfbff0bfc>
 4000fb0:	9080040c 	andi	r2,r18,16
 4000fb4:	1002eb26 	beq	r2,zero,4001b64 <___vfprintf_internal_r+0x18e8>
 4000fb8:	d8802e17 	ldw	r2,184(sp)
 4000fbc:	002d883a 	mov	r22,zero
 4000fc0:	14c00017 	ldw	r19,0(r2)
 4000fc4:	10800104 	addi	r2,r2,4
 4000fc8:	d8802e15 	stw	r2,184(sp)
 4000fcc:	003f9c06 	br	4000e40 <__ram_exceptions_end+0xfbff0c10>
 4000fd0:	d8802b07 	ldb	r2,172(sp)
 4000fd4:	1002e11e 	bne	r2,zero,4001b5c <___vfprintf_internal_r+0x18e0>
 4000fd8:	00c00044 	movi	r3,1
 4000fdc:	d8c02905 	stb	r3,164(sp)
 4000fe0:	00c00804 	movi	r3,32
 4000fe4:	d8c02b05 	stb	r3,172(sp)
 4000fe8:	ac400007 	ldb	r17,0(r21)
 4000fec:	003d0506 	br	4000404 <__ram_exceptions_end+0xfbff01d4>
 4000ff0:	84000054 	ori	r16,r16,1
 4000ff4:	ac400007 	ldb	r17,0(r21)
 4000ff8:	003d0206 	br	4000404 <__ram_exceptions_end+0xfbff01d4>
 4000ffc:	8025883a 	mov	r18,r16
 4001000:	dc002903 	ldbu	r16,164(sp)
 4001004:	e011883a 	mov	r8,fp
 4001008:	84003fcc 	andi	r16,r16,255
 400100c:	803de726 	beq	r16,zero,40007ac <__ram_exceptions_end+0xfbff057c>
 4001010:	d8c02b03 	ldbu	r3,172(sp)
 4001014:	d8c02785 	stb	r3,158(sp)
 4001018:	003de406 	br	40007ac <__ram_exceptions_end+0xfbff057c>
 400101c:	84001014 	ori	r16,r16,64
 4001020:	ac400007 	ldb	r17,0(r21)
 4001024:	003cf706 	br	4000404 <__ram_exceptions_end+0xfbff01d4>
 4001028:	ac400007 	ldb	r17,0(r21)
 400102c:	00801b04 	movi	r2,108
 4001030:	88838f26 	beq	r17,r2,4001e70 <___vfprintf_internal_r+0x1bf4>
 4001034:	84000414 	ori	r16,r16,16
 4001038:	003cf206 	br	4000404 <__ram_exceptions_end+0xfbff01d4>
 400103c:	8025883a 	mov	r18,r16
 4001040:	dc002903 	ldbu	r16,164(sp)
 4001044:	e011883a 	mov	r8,fp
 4001048:	84003fcc 	andi	r16,r16,255
 400104c:	80053f1e 	bne	r16,zero,400254c <___vfprintf_internal_r+0x22d0>
 4001050:	9080080c 	andi	r2,r18,32
 4001054:	1002d226 	beq	r2,zero,4001ba0 <___vfprintf_internal_r+0x1924>
 4001058:	d9002e17 	ldw	r4,184(sp)
 400105c:	d9402f17 	ldw	r5,188(sp)
 4001060:	20800017 	ldw	r2,0(r4)
 4001064:	2807d7fa 	srai	r3,r5,31
 4001068:	21000104 	addi	r4,r4,4
 400106c:	d9002e15 	stw	r4,184(sp)
 4001070:	11400015 	stw	r5,0(r2)
 4001074:	10c00115 	stw	r3,4(r2)
 4001078:	003cb806 	br	400035c <__ram_exceptions_end+0xfbff012c>
 400107c:	d8c02e17 	ldw	r3,184(sp)
 4001080:	d9002e17 	ldw	r4,184(sp)
 4001084:	8025883a 	mov	r18,r16
 4001088:	18800017 	ldw	r2,0(r3)
 400108c:	21000104 	addi	r4,r4,4
 4001090:	00c00044 	movi	r3,1
 4001094:	e011883a 	mov	r8,fp
 4001098:	d8c02915 	stw	r3,164(sp)
 400109c:	d8002785 	stb	zero,158(sp)
 40010a0:	d8801405 	stb	r2,80(sp)
 40010a4:	d9002e15 	stw	r4,184(sp)
 40010a8:	d8c02b15 	stw	r3,172(sp)
 40010ac:	d8002a15 	stw	zero,168(sp)
 40010b0:	d8003215 	stw	zero,200(sp)
 40010b4:	dc001404 	addi	r16,sp,80
 40010b8:	0039883a 	mov	fp,zero
 40010bc:	003e5306 	br	4000a0c <__ram_exceptions_end+0xfbff07dc>
 40010c0:	01010074 	movhi	r4,1025
 40010c4:	213db304 	addi	r4,r4,-2356
 40010c8:	0039883a 	mov	fp,zero
 40010cc:	d9003915 	stw	r4,228(sp)
 40010d0:	04401e04 	movi	r17,120
 40010d4:	003f6906 	br	4000e7c <__ram_exceptions_end+0xfbff0c4c>
 40010d8:	8025883a 	mov	r18,r16
 40010dc:	dc002903 	ldbu	r16,164(sp)
 40010e0:	e011883a 	mov	r8,fp
 40010e4:	84003fcc 	andi	r16,r16,255
 40010e8:	8005081e 	bne	r16,zero,400250c <___vfprintf_internal_r+0x2290>
 40010ec:	883d6126 	beq	r17,zero,4000674 <__ram_exceptions_end+0xfbff0444>
 40010f0:	00c00044 	movi	r3,1
 40010f4:	d8c02915 	stw	r3,164(sp)
 40010f8:	dc401405 	stb	r17,80(sp)
 40010fc:	d8002785 	stb	zero,158(sp)
 4001100:	003fe906 	br	40010a8 <__ram_exceptions_end+0xfbff0e78>
 4001104:	01410074 	movhi	r5,1025
 4001108:	297db304 	addi	r5,r5,-2356
 400110c:	d9403915 	stw	r5,228(sp)
 4001110:	d8c02e15 	stw	r3,184(sp)
 4001114:	1025883a 	mov	r18,r2
 4001118:	04401e04 	movi	r17,120
 400111c:	9d84b03a 	or	r2,r19,r22
 4001120:	1000fc1e 	bne	r2,zero,4001514 <___vfprintf_internal_r+0x1298>
 4001124:	0039883a 	mov	fp,zero
 4001128:	00800084 	movi	r2,2
 400112c:	10803fcc 	andi	r2,r2,255
 4001130:	00c00044 	movi	r3,1
 4001134:	10c20f26 	beq	r2,r3,4001974 <___vfprintf_internal_r+0x16f8>
 4001138:	00c00084 	movi	r3,2
 400113c:	10fd3326 	beq	r2,r3,400060c <__ram_exceptions_end+0xfbff03dc>
 4001140:	003e0b06 	br	4000970 <__ram_exceptions_end+0xfbff0740>
 4001144:	d8c02017 	ldw	r3,128(sp)
 4001148:	003e7106 	br	4000b10 <__ram_exceptions_end+0xfbff08e0>
 400114c:	00801944 	movi	r2,101
 4001150:	14407e0e 	bge	r2,r17,400134c <___vfprintf_internal_r+0x10d0>
 4001154:	d9003617 	ldw	r4,216(sp)
 4001158:	d9403817 	ldw	r5,224(sp)
 400115c:	000d883a 	mov	r6,zero
 4001160:	000f883a 	mov	r7,zero
 4001164:	d8c03c15 	stw	r3,240(sp)
 4001168:	da003d15 	stw	r8,244(sp)
 400116c:	400b9bc0 	call	400b9bc <__eqdf2>
 4001170:	d8c03c17 	ldw	r3,240(sp)
 4001174:	da003d17 	ldw	r8,244(sp)
 4001178:	1000f71e 	bne	r2,zero,4001558 <___vfprintf_internal_r+0x12dc>
 400117c:	d8801f17 	ldw	r2,124(sp)
 4001180:	01010074 	movhi	r4,1025
 4001184:	213dba04 	addi	r4,r4,-2328
 4001188:	18c00044 	addi	r3,r3,1
 400118c:	10800044 	addi	r2,r2,1
 4001190:	41000015 	stw	r4,0(r8)
 4001194:	01000044 	movi	r4,1
 4001198:	41000115 	stw	r4,4(r8)
 400119c:	d8c02015 	stw	r3,128(sp)
 40011a0:	d8801f15 	stw	r2,124(sp)
 40011a4:	010001c4 	movi	r4,7
 40011a8:	2082b816 	blt	r4,r2,4001c8c <___vfprintf_internal_r+0x1a10>
 40011ac:	42000204 	addi	r8,r8,8
 40011b0:	d8802617 	ldw	r2,152(sp)
 40011b4:	d9403317 	ldw	r5,204(sp)
 40011b8:	11400216 	blt	r2,r5,40011c4 <___vfprintf_internal_r+0xf48>
 40011bc:	9080004c 	andi	r2,r18,1
 40011c0:	103eb326 	beq	r2,zero,4000c90 <__ram_exceptions_end+0xfbff0a60>
 40011c4:	d8803717 	ldw	r2,220(sp)
 40011c8:	d9003417 	ldw	r4,208(sp)
 40011cc:	d9403717 	ldw	r5,220(sp)
 40011d0:	1887883a 	add	r3,r3,r2
 40011d4:	d8801f17 	ldw	r2,124(sp)
 40011d8:	41000015 	stw	r4,0(r8)
 40011dc:	41400115 	stw	r5,4(r8)
 40011e0:	10800044 	addi	r2,r2,1
 40011e4:	d8c02015 	stw	r3,128(sp)
 40011e8:	d8801f15 	stw	r2,124(sp)
 40011ec:	010001c4 	movi	r4,7
 40011f0:	20832916 	blt	r4,r2,4001e98 <___vfprintf_internal_r+0x1c1c>
 40011f4:	42000204 	addi	r8,r8,8
 40011f8:	d8803317 	ldw	r2,204(sp)
 40011fc:	143fffc4 	addi	r16,r2,-1
 4001200:	043ea30e 	bge	zero,r16,4000c90 <__ram_exceptions_end+0xfbff0a60>
 4001204:	04400404 	movi	r17,16
 4001208:	d8801f17 	ldw	r2,124(sp)
 400120c:	8c00880e 	bge	r17,r16,4001430 <___vfprintf_internal_r+0x11b4>
 4001210:	01410074 	movhi	r5,1025
 4001214:	297dba84 	addi	r5,r5,-2326
 4001218:	d9402c15 	stw	r5,176(sp)
 400121c:	058001c4 	movi	r22,7
 4001220:	dcc02d17 	ldw	r19,180(sp)
 4001224:	00000306 	br	4001234 <___vfprintf_internal_r+0xfb8>
 4001228:	42000204 	addi	r8,r8,8
 400122c:	843ffc04 	addi	r16,r16,-16
 4001230:	8c00820e 	bge	r17,r16,400143c <___vfprintf_internal_r+0x11c0>
 4001234:	18c00404 	addi	r3,r3,16
 4001238:	10800044 	addi	r2,r2,1
 400123c:	45000015 	stw	r20,0(r8)
 4001240:	44400115 	stw	r17,4(r8)
 4001244:	d8c02015 	stw	r3,128(sp)
 4001248:	d8801f15 	stw	r2,124(sp)
 400124c:	b0bff60e 	bge	r22,r2,4001228 <__ram_exceptions_end+0xfbff0ff8>
 4001250:	d9801e04 	addi	r6,sp,120
 4001254:	b80b883a 	mov	r5,r23
 4001258:	9809883a 	mov	r4,r19
 400125c:	4007a5c0 	call	4007a5c <__sprint_r>
 4001260:	103d0a1e 	bne	r2,zero,400068c <__ram_exceptions_end+0xfbff045c>
 4001264:	d8c02017 	ldw	r3,128(sp)
 4001268:	d8801f17 	ldw	r2,124(sp)
 400126c:	da000404 	addi	r8,sp,16
 4001270:	003fee06 	br	400122c <__ram_exceptions_end+0xfbff0ffc>
 4001274:	d9403117 	ldw	r5,196(sp)
 4001278:	d8802917 	ldw	r2,164(sp)
 400127c:	28adc83a 	sub	r22,r5,r2
 4001280:	05be410e 	bge	zero,r22,4000b88 <__ram_exceptions_end+0xfbff0958>
 4001284:	07000404 	movi	fp,16
 4001288:	d8801f17 	ldw	r2,124(sp)
 400128c:	e5838f0e 	bge	fp,r22,40020cc <___vfprintf_internal_r+0x1e50>
 4001290:	01410074 	movhi	r5,1025
 4001294:	297dba84 	addi	r5,r5,-2326
 4001298:	dc403015 	stw	r17,192(sp)
 400129c:	d9402c15 	stw	r5,176(sp)
 40012a0:	b023883a 	mov	r17,r22
 40012a4:	04c001c4 	movi	r19,7
 40012a8:	a82d883a 	mov	r22,r21
 40012ac:	902b883a 	mov	r21,r18
 40012b0:	8025883a 	mov	r18,r16
 40012b4:	dc002d17 	ldw	r16,180(sp)
 40012b8:	00000306 	br	40012c8 <___vfprintf_internal_r+0x104c>
 40012bc:	8c7ffc04 	addi	r17,r17,-16
 40012c0:	42000204 	addi	r8,r8,8
 40012c4:	e440110e 	bge	fp,r17,400130c <___vfprintf_internal_r+0x1090>
 40012c8:	18c00404 	addi	r3,r3,16
 40012cc:	10800044 	addi	r2,r2,1
 40012d0:	45000015 	stw	r20,0(r8)
 40012d4:	47000115 	stw	fp,4(r8)
 40012d8:	d8c02015 	stw	r3,128(sp)
 40012dc:	d8801f15 	stw	r2,124(sp)
 40012e0:	98bff60e 	bge	r19,r2,40012bc <__ram_exceptions_end+0xfbff108c>
 40012e4:	d9801e04 	addi	r6,sp,120
 40012e8:	b80b883a 	mov	r5,r23
 40012ec:	8009883a 	mov	r4,r16
 40012f0:	4007a5c0 	call	4007a5c <__sprint_r>
 40012f4:	103ce51e 	bne	r2,zero,400068c <__ram_exceptions_end+0xfbff045c>
 40012f8:	8c7ffc04 	addi	r17,r17,-16
 40012fc:	d8c02017 	ldw	r3,128(sp)
 4001300:	d8801f17 	ldw	r2,124(sp)
 4001304:	da000404 	addi	r8,sp,16
 4001308:	e47fef16 	blt	fp,r17,40012c8 <__ram_exceptions_end+0xfbff1098>
 400130c:	9021883a 	mov	r16,r18
 4001310:	a825883a 	mov	r18,r21
 4001314:	b02b883a 	mov	r21,r22
 4001318:	882d883a 	mov	r22,r17
 400131c:	dc403017 	ldw	r17,192(sp)
 4001320:	d9002c17 	ldw	r4,176(sp)
 4001324:	1d87883a 	add	r3,r3,r22
 4001328:	10800044 	addi	r2,r2,1
 400132c:	41000015 	stw	r4,0(r8)
 4001330:	45800115 	stw	r22,4(r8)
 4001334:	d8c02015 	stw	r3,128(sp)
 4001338:	d8801f15 	stw	r2,124(sp)
 400133c:	010001c4 	movi	r4,7
 4001340:	20818e16 	blt	r4,r2,400197c <___vfprintf_internal_r+0x1700>
 4001344:	42000204 	addi	r8,r8,8
 4001348:	003e0f06 	br	4000b88 <__ram_exceptions_end+0xfbff0958>
 400134c:	d9403317 	ldw	r5,204(sp)
 4001350:	00800044 	movi	r2,1
 4001354:	18c00044 	addi	r3,r3,1
 4001358:	1141530e 	bge	r2,r5,40018a8 <___vfprintf_internal_r+0x162c>
 400135c:	dc401f17 	ldw	r17,124(sp)
 4001360:	00800044 	movi	r2,1
 4001364:	40800115 	stw	r2,4(r8)
 4001368:	8c400044 	addi	r17,r17,1
 400136c:	44000015 	stw	r16,0(r8)
 4001370:	d8c02015 	stw	r3,128(sp)
 4001374:	dc401f15 	stw	r17,124(sp)
 4001378:	008001c4 	movi	r2,7
 400137c:	14416b16 	blt	r2,r17,400192c <___vfprintf_internal_r+0x16b0>
 4001380:	42000204 	addi	r8,r8,8
 4001384:	d8803717 	ldw	r2,220(sp)
 4001388:	d9003417 	ldw	r4,208(sp)
 400138c:	8c400044 	addi	r17,r17,1
 4001390:	10c7883a 	add	r3,r2,r3
 4001394:	40800115 	stw	r2,4(r8)
 4001398:	41000015 	stw	r4,0(r8)
 400139c:	d8c02015 	stw	r3,128(sp)
 40013a0:	dc401f15 	stw	r17,124(sp)
 40013a4:	008001c4 	movi	r2,7
 40013a8:	14416916 	blt	r2,r17,4001950 <___vfprintf_internal_r+0x16d4>
 40013ac:	45800204 	addi	r22,r8,8
 40013b0:	d9003617 	ldw	r4,216(sp)
 40013b4:	d9403817 	ldw	r5,224(sp)
 40013b8:	000d883a 	mov	r6,zero
 40013bc:	000f883a 	mov	r7,zero
 40013c0:	d8c03c15 	stw	r3,240(sp)
 40013c4:	400b9bc0 	call	400b9bc <__eqdf2>
 40013c8:	d8c03c17 	ldw	r3,240(sp)
 40013cc:	1000bc26 	beq	r2,zero,40016c0 <___vfprintf_internal_r+0x1444>
 40013d0:	d9403317 	ldw	r5,204(sp)
 40013d4:	84000044 	addi	r16,r16,1
 40013d8:	8c400044 	addi	r17,r17,1
 40013dc:	28bfffc4 	addi	r2,r5,-1
 40013e0:	1887883a 	add	r3,r3,r2
 40013e4:	b0800115 	stw	r2,4(r22)
 40013e8:	b4000015 	stw	r16,0(r22)
 40013ec:	d8c02015 	stw	r3,128(sp)
 40013f0:	dc401f15 	stw	r17,124(sp)
 40013f4:	008001c4 	movi	r2,7
 40013f8:	14414316 	blt	r2,r17,4001908 <___vfprintf_internal_r+0x168c>
 40013fc:	b5800204 	addi	r22,r22,8
 4001400:	d9003a17 	ldw	r4,232(sp)
 4001404:	df0022c4 	addi	fp,sp,139
 4001408:	8c400044 	addi	r17,r17,1
 400140c:	20c7883a 	add	r3,r4,r3
 4001410:	b7000015 	stw	fp,0(r22)
 4001414:	b1000115 	stw	r4,4(r22)
 4001418:	d8c02015 	stw	r3,128(sp)
 400141c:	dc401f15 	stw	r17,124(sp)
 4001420:	008001c4 	movi	r2,7
 4001424:	14400e16 	blt	r2,r17,4001460 <___vfprintf_internal_r+0x11e4>
 4001428:	b2000204 	addi	r8,r22,8
 400142c:	003e1806 	br	4000c90 <__ram_exceptions_end+0xfbff0a60>
 4001430:	01010074 	movhi	r4,1025
 4001434:	213dba84 	addi	r4,r4,-2326
 4001438:	d9002c15 	stw	r4,176(sp)
 400143c:	d9002c17 	ldw	r4,176(sp)
 4001440:	1c07883a 	add	r3,r3,r16
 4001444:	44000115 	stw	r16,4(r8)
 4001448:	41000015 	stw	r4,0(r8)
 400144c:	10800044 	addi	r2,r2,1
 4001450:	d8c02015 	stw	r3,128(sp)
 4001454:	d8801f15 	stw	r2,124(sp)
 4001458:	010001c4 	movi	r4,7
 400145c:	20be0b0e 	bge	r4,r2,4000c8c <__ram_exceptions_end+0xfbff0a5c>
 4001460:	d9002d17 	ldw	r4,180(sp)
 4001464:	d9801e04 	addi	r6,sp,120
 4001468:	b80b883a 	mov	r5,r23
 400146c:	4007a5c0 	call	4007a5c <__sprint_r>
 4001470:	103c861e 	bne	r2,zero,400068c <__ram_exceptions_end+0xfbff045c>
 4001474:	d8c02017 	ldw	r3,128(sp)
 4001478:	da000404 	addi	r8,sp,16
 400147c:	003e0406 	br	4000c90 <__ram_exceptions_end+0xfbff0a60>
 4001480:	d9002d17 	ldw	r4,180(sp)
 4001484:	d9801e04 	addi	r6,sp,120
 4001488:	b80b883a 	mov	r5,r23
 400148c:	4007a5c0 	call	4007a5c <__sprint_r>
 4001490:	103e3b26 	beq	r2,zero,4000d80 <__ram_exceptions_end+0xfbff0b50>
 4001494:	003c7d06 	br	400068c <__ram_exceptions_end+0xfbff045c>
 4001498:	d9002d17 	ldw	r4,180(sp)
 400149c:	d9801e04 	addi	r6,sp,120
 40014a0:	b80b883a 	mov	r5,r23
 40014a4:	4007a5c0 	call	4007a5c <__sprint_r>
 40014a8:	103c781e 	bne	r2,zero,400068c <__ram_exceptions_end+0xfbff045c>
 40014ac:	d8c02017 	ldw	r3,128(sp)
 40014b0:	da000404 	addi	r8,sp,16
 40014b4:	003de906 	br	4000c5c <__ram_exceptions_end+0xfbff0a2c>
 40014b8:	d9002d17 	ldw	r4,180(sp)
 40014bc:	d9801e04 	addi	r6,sp,120
 40014c0:	b80b883a 	mov	r5,r23
 40014c4:	4007a5c0 	call	4007a5c <__sprint_r>
 40014c8:	103c701e 	bne	r2,zero,400068c <__ram_exceptions_end+0xfbff045c>
 40014cc:	d8c02017 	ldw	r3,128(sp)
 40014d0:	da000404 	addi	r8,sp,16
 40014d4:	003d9b06 	br	4000b44 <__ram_exceptions_end+0xfbff0914>
 40014d8:	d9002d17 	ldw	r4,180(sp)
 40014dc:	d9801e04 	addi	r6,sp,120
 40014e0:	b80b883a 	mov	r5,r23
 40014e4:	4007a5c0 	call	4007a5c <__sprint_r>
 40014e8:	103c681e 	bne	r2,zero,400068c <__ram_exceptions_end+0xfbff045c>
 40014ec:	d8c02017 	ldw	r3,128(sp)
 40014f0:	da000404 	addi	r8,sp,16
 40014f4:	003da106 	br	4000b7c <__ram_exceptions_end+0xfbff094c>
 40014f8:	d9402a17 	ldw	r5,168(sp)
 40014fc:	d8002785 	stb	zero,158(sp)
 4001500:	283f0616 	blt	r5,zero,400111c <__ram_exceptions_end+0xfbff0eec>
 4001504:	00ffdfc4 	movi	r3,-129
 4001508:	9d84b03a 	or	r2,r19,r22
 400150c:	90e4703a 	and	r18,r18,r3
 4001510:	103c3b26 	beq	r2,zero,4000600 <__ram_exceptions_end+0xfbff03d0>
 4001514:	0039883a 	mov	fp,zero
 4001518:	003e5806 	br	4000e7c <__ram_exceptions_end+0xfbff0c4c>
 400151c:	9080040c 	andi	r2,r18,16
 4001520:	1001b326 	beq	r2,zero,4001bf0 <___vfprintf_internal_r+0x1974>
 4001524:	d8c02e17 	ldw	r3,184(sp)
 4001528:	d9002a17 	ldw	r4,168(sp)
 400152c:	d8002785 	stb	zero,158(sp)
 4001530:	18800104 	addi	r2,r3,4
 4001534:	1cc00017 	ldw	r19,0(r3)
 4001538:	002d883a 	mov	r22,zero
 400153c:	2001b516 	blt	r4,zero,4001c14 <___vfprintf_internal_r+0x1998>
 4001540:	00ffdfc4 	movi	r3,-129
 4001544:	d8802e15 	stw	r2,184(sp)
 4001548:	90e4703a 	and	r18,r18,r3
 400154c:	983d0526 	beq	r19,zero,4000964 <__ram_exceptions_end+0xfbff0734>
 4001550:	0039883a 	mov	fp,zero
 4001554:	003d0806 	br	4000978 <__ram_exceptions_end+0xfbff0748>
 4001558:	dc402617 	ldw	r17,152(sp)
 400155c:	0441d30e 	bge	zero,r17,4001cac <___vfprintf_internal_r+0x1a30>
 4001560:	dc403217 	ldw	r17,200(sp)
 4001564:	d8803317 	ldw	r2,204(sp)
 4001568:	1440010e 	bge	r2,r17,4001570 <___vfprintf_internal_r+0x12f4>
 400156c:	1023883a 	mov	r17,r2
 4001570:	04400a0e 	bge	zero,r17,400159c <___vfprintf_internal_r+0x1320>
 4001574:	d8801f17 	ldw	r2,124(sp)
 4001578:	1c47883a 	add	r3,r3,r17
 400157c:	44000015 	stw	r16,0(r8)
 4001580:	10800044 	addi	r2,r2,1
 4001584:	44400115 	stw	r17,4(r8)
 4001588:	d8c02015 	stw	r3,128(sp)
 400158c:	d8801f15 	stw	r2,124(sp)
 4001590:	010001c4 	movi	r4,7
 4001594:	20826516 	blt	r4,r2,4001f2c <___vfprintf_internal_r+0x1cb0>
 4001598:	42000204 	addi	r8,r8,8
 400159c:	88026116 	blt	r17,zero,4001f24 <___vfprintf_internal_r+0x1ca8>
 40015a0:	d9003217 	ldw	r4,200(sp)
 40015a4:	2463c83a 	sub	r17,r4,r17
 40015a8:	04407b0e 	bge	zero,r17,4001798 <___vfprintf_internal_r+0x151c>
 40015ac:	05800404 	movi	r22,16
 40015b0:	d8801f17 	ldw	r2,124(sp)
 40015b4:	b4419d0e 	bge	r22,r17,4001c2c <___vfprintf_internal_r+0x19b0>
 40015b8:	01010074 	movhi	r4,1025
 40015bc:	213dba84 	addi	r4,r4,-2326
 40015c0:	d9002c15 	stw	r4,176(sp)
 40015c4:	070001c4 	movi	fp,7
 40015c8:	dcc02d17 	ldw	r19,180(sp)
 40015cc:	00000306 	br	40015dc <___vfprintf_internal_r+0x1360>
 40015d0:	42000204 	addi	r8,r8,8
 40015d4:	8c7ffc04 	addi	r17,r17,-16
 40015d8:	b441970e 	bge	r22,r17,4001c38 <___vfprintf_internal_r+0x19bc>
 40015dc:	18c00404 	addi	r3,r3,16
 40015e0:	10800044 	addi	r2,r2,1
 40015e4:	45000015 	stw	r20,0(r8)
 40015e8:	45800115 	stw	r22,4(r8)
 40015ec:	d8c02015 	stw	r3,128(sp)
 40015f0:	d8801f15 	stw	r2,124(sp)
 40015f4:	e0bff60e 	bge	fp,r2,40015d0 <__ram_exceptions_end+0xfbff13a0>
 40015f8:	d9801e04 	addi	r6,sp,120
 40015fc:	b80b883a 	mov	r5,r23
 4001600:	9809883a 	mov	r4,r19
 4001604:	4007a5c0 	call	4007a5c <__sprint_r>
 4001608:	103c201e 	bne	r2,zero,400068c <__ram_exceptions_end+0xfbff045c>
 400160c:	d8c02017 	ldw	r3,128(sp)
 4001610:	d8801f17 	ldw	r2,124(sp)
 4001614:	da000404 	addi	r8,sp,16
 4001618:	003fee06 	br	40015d4 <__ram_exceptions_end+0xfbff13a4>
 400161c:	d9002d17 	ldw	r4,180(sp)
 4001620:	d9801e04 	addi	r6,sp,120
 4001624:	b80b883a 	mov	r5,r23
 4001628:	4007a5c0 	call	4007a5c <__sprint_r>
 400162c:	103c171e 	bne	r2,zero,400068c <__ram_exceptions_end+0xfbff045c>
 4001630:	d8c02017 	ldw	r3,128(sp)
 4001634:	df002787 	ldb	fp,158(sp)
 4001638:	da000404 	addi	r8,sp,16
 400163c:	003d3406 	br	4000b10 <__ram_exceptions_end+0xfbff08e0>
 4001640:	9080040c 	andi	r2,r18,16
 4001644:	10016126 	beq	r2,zero,4001bcc <___vfprintf_internal_r+0x1950>
 4001648:	d9402e17 	ldw	r5,184(sp)
 400164c:	2cc00017 	ldw	r19,0(r5)
 4001650:	29400104 	addi	r5,r5,4
 4001654:	d9402e15 	stw	r5,184(sp)
 4001658:	982dd7fa 	srai	r22,r19,31
 400165c:	b005883a 	mov	r2,r22
 4001660:	003c5a06 	br	40007cc <__ram_exceptions_end+0xfbff059c>
 4001664:	9080040c 	andi	r2,r18,16
 4001668:	10003526 	beq	r2,zero,4001740 <___vfprintf_internal_r+0x14c4>
 400166c:	d8c02e17 	ldw	r3,184(sp)
 4001670:	d9002a17 	ldw	r4,168(sp)
 4001674:	d8002785 	stb	zero,158(sp)
 4001678:	18800104 	addi	r2,r3,4
 400167c:	1cc00017 	ldw	r19,0(r3)
 4001680:	002d883a 	mov	r22,zero
 4001684:	20003716 	blt	r4,zero,4001764 <___vfprintf_internal_r+0x14e8>
 4001688:	00ffdfc4 	movi	r3,-129
 400168c:	d8802e15 	stw	r2,184(sp)
 4001690:	90e4703a 	and	r18,r18,r3
 4001694:	0039883a 	mov	fp,zero
 4001698:	983dd426 	beq	r19,zero,4000dec <__ram_exceptions_end+0xfbff0bbc>
 400169c:	00800244 	movi	r2,9
 40016a0:	14fc5336 	bltu	r2,r19,40007f0 <__ram_exceptions_end+0xfbff05c0>
 40016a4:	d8c02817 	ldw	r3,160(sp)
 40016a8:	dc001dc4 	addi	r16,sp,119
 40016ac:	9cc00c04 	addi	r19,r19,48
 40016b0:	1c07c83a 	sub	r3,r3,r16
 40016b4:	dcc01dc5 	stb	r19,119(sp)
 40016b8:	d8c02b15 	stw	r3,172(sp)
 40016bc:	003cc606 	br	40009d8 <__ram_exceptions_end+0xfbff07a8>
 40016c0:	d8803317 	ldw	r2,204(sp)
 40016c4:	143fffc4 	addi	r16,r2,-1
 40016c8:	043f4d0e 	bge	zero,r16,4001400 <__ram_exceptions_end+0xfbff11d0>
 40016cc:	07000404 	movi	fp,16
 40016d0:	e400810e 	bge	fp,r16,40018d8 <___vfprintf_internal_r+0x165c>
 40016d4:	01410074 	movhi	r5,1025
 40016d8:	297dba84 	addi	r5,r5,-2326
 40016dc:	d9402c15 	stw	r5,176(sp)
 40016e0:	01c001c4 	movi	r7,7
 40016e4:	dcc02d17 	ldw	r19,180(sp)
 40016e8:	00000306 	br	40016f8 <___vfprintf_internal_r+0x147c>
 40016ec:	b5800204 	addi	r22,r22,8
 40016f0:	843ffc04 	addi	r16,r16,-16
 40016f4:	e4007b0e 	bge	fp,r16,40018e4 <___vfprintf_internal_r+0x1668>
 40016f8:	18c00404 	addi	r3,r3,16
 40016fc:	8c400044 	addi	r17,r17,1
 4001700:	b5000015 	stw	r20,0(r22)
 4001704:	b7000115 	stw	fp,4(r22)
 4001708:	d8c02015 	stw	r3,128(sp)
 400170c:	dc401f15 	stw	r17,124(sp)
 4001710:	3c7ff60e 	bge	r7,r17,40016ec <__ram_exceptions_end+0xfbff14bc>
 4001714:	d9801e04 	addi	r6,sp,120
 4001718:	b80b883a 	mov	r5,r23
 400171c:	9809883a 	mov	r4,r19
 4001720:	d9c03c15 	stw	r7,240(sp)
 4001724:	4007a5c0 	call	4007a5c <__sprint_r>
 4001728:	d9c03c17 	ldw	r7,240(sp)
 400172c:	103bd71e 	bne	r2,zero,400068c <__ram_exceptions_end+0xfbff045c>
 4001730:	d8c02017 	ldw	r3,128(sp)
 4001734:	dc401f17 	ldw	r17,124(sp)
 4001738:	dd800404 	addi	r22,sp,16
 400173c:	003fec06 	br	40016f0 <__ram_exceptions_end+0xfbff14c0>
 4001740:	9080100c 	andi	r2,r18,64
 4001744:	d8002785 	stb	zero,158(sp)
 4001748:	10010e26 	beq	r2,zero,4001b84 <___vfprintf_internal_r+0x1908>
 400174c:	d9402e17 	ldw	r5,184(sp)
 4001750:	d8c02a17 	ldw	r3,168(sp)
 4001754:	002d883a 	mov	r22,zero
 4001758:	28800104 	addi	r2,r5,4
 400175c:	2cc0000b 	ldhu	r19,0(r5)
 4001760:	183fc90e 	bge	r3,zero,4001688 <__ram_exceptions_end+0xfbff1458>
 4001764:	d8802e15 	stw	r2,184(sp)
 4001768:	0039883a 	mov	fp,zero
 400176c:	9d84b03a 	or	r2,r19,r22
 4001770:	103c1e1e 	bne	r2,zero,40007ec <__ram_exceptions_end+0xfbff05bc>
 4001774:	00800044 	movi	r2,1
 4001778:	003e6c06 	br	400112c <__ram_exceptions_end+0xfbff0efc>
 400177c:	d9002d17 	ldw	r4,180(sp)
 4001780:	d9801e04 	addi	r6,sp,120
 4001784:	b80b883a 	mov	r5,r23
 4001788:	4007a5c0 	call	4007a5c <__sprint_r>
 400178c:	103bbf1e 	bne	r2,zero,400068c <__ram_exceptions_end+0xfbff045c>
 4001790:	d8c02017 	ldw	r3,128(sp)
 4001794:	da000404 	addi	r8,sp,16
 4001798:	d9003217 	ldw	r4,200(sp)
 400179c:	d8802617 	ldw	r2,152(sp)
 40017a0:	d9403317 	ldw	r5,204(sp)
 40017a4:	8123883a 	add	r17,r16,r4
 40017a8:	11400216 	blt	r2,r5,40017b4 <___vfprintf_internal_r+0x1538>
 40017ac:	9100004c 	andi	r4,r18,1
 40017b0:	20000d26 	beq	r4,zero,40017e8 <___vfprintf_internal_r+0x156c>
 40017b4:	d9003717 	ldw	r4,220(sp)
 40017b8:	d9403417 	ldw	r5,208(sp)
 40017bc:	1907883a 	add	r3,r3,r4
 40017c0:	d9001f17 	ldw	r4,124(sp)
 40017c4:	41400015 	stw	r5,0(r8)
 40017c8:	d9403717 	ldw	r5,220(sp)
 40017cc:	21000044 	addi	r4,r4,1
 40017d0:	d8c02015 	stw	r3,128(sp)
 40017d4:	41400115 	stw	r5,4(r8)
 40017d8:	d9001f15 	stw	r4,124(sp)
 40017dc:	014001c4 	movi	r5,7
 40017e0:	2901e816 	blt	r5,r4,4001f84 <___vfprintf_internal_r+0x1d08>
 40017e4:	42000204 	addi	r8,r8,8
 40017e8:	d9003317 	ldw	r4,204(sp)
 40017ec:	8121883a 	add	r16,r16,r4
 40017f0:	2085c83a 	sub	r2,r4,r2
 40017f4:	8461c83a 	sub	r16,r16,r17
 40017f8:	1400010e 	bge	r2,r16,4001800 <___vfprintf_internal_r+0x1584>
 40017fc:	1021883a 	mov	r16,r2
 4001800:	04000a0e 	bge	zero,r16,400182c <___vfprintf_internal_r+0x15b0>
 4001804:	d9001f17 	ldw	r4,124(sp)
 4001808:	1c07883a 	add	r3,r3,r16
 400180c:	44400015 	stw	r17,0(r8)
 4001810:	21000044 	addi	r4,r4,1
 4001814:	44000115 	stw	r16,4(r8)
 4001818:	d8c02015 	stw	r3,128(sp)
 400181c:	d9001f15 	stw	r4,124(sp)
 4001820:	014001c4 	movi	r5,7
 4001824:	2901fb16 	blt	r5,r4,4002014 <___vfprintf_internal_r+0x1d98>
 4001828:	42000204 	addi	r8,r8,8
 400182c:	8001f716 	blt	r16,zero,400200c <___vfprintf_internal_r+0x1d90>
 4001830:	1421c83a 	sub	r16,r2,r16
 4001834:	043d160e 	bge	zero,r16,4000c90 <__ram_exceptions_end+0xfbff0a60>
 4001838:	04400404 	movi	r17,16
 400183c:	d8801f17 	ldw	r2,124(sp)
 4001840:	8c3efb0e 	bge	r17,r16,4001430 <__ram_exceptions_end+0xfbff1200>
 4001844:	01410074 	movhi	r5,1025
 4001848:	297dba84 	addi	r5,r5,-2326
 400184c:	d9402c15 	stw	r5,176(sp)
 4001850:	058001c4 	movi	r22,7
 4001854:	dcc02d17 	ldw	r19,180(sp)
 4001858:	00000306 	br	4001868 <___vfprintf_internal_r+0x15ec>
 400185c:	42000204 	addi	r8,r8,8
 4001860:	843ffc04 	addi	r16,r16,-16
 4001864:	8c3ef50e 	bge	r17,r16,400143c <__ram_exceptions_end+0xfbff120c>
 4001868:	18c00404 	addi	r3,r3,16
 400186c:	10800044 	addi	r2,r2,1
 4001870:	45000015 	stw	r20,0(r8)
 4001874:	44400115 	stw	r17,4(r8)
 4001878:	d8c02015 	stw	r3,128(sp)
 400187c:	d8801f15 	stw	r2,124(sp)
 4001880:	b0bff60e 	bge	r22,r2,400185c <__ram_exceptions_end+0xfbff162c>
 4001884:	d9801e04 	addi	r6,sp,120
 4001888:	b80b883a 	mov	r5,r23
 400188c:	9809883a 	mov	r4,r19
 4001890:	4007a5c0 	call	4007a5c <__sprint_r>
 4001894:	103b7d1e 	bne	r2,zero,400068c <__ram_exceptions_end+0xfbff045c>
 4001898:	d8c02017 	ldw	r3,128(sp)
 400189c:	d8801f17 	ldw	r2,124(sp)
 40018a0:	da000404 	addi	r8,sp,16
 40018a4:	003fee06 	br	4001860 <__ram_exceptions_end+0xfbff1630>
 40018a8:	9088703a 	and	r4,r18,r2
 40018ac:	203eab1e 	bne	r4,zero,400135c <__ram_exceptions_end+0xfbff112c>
 40018b0:	dc401f17 	ldw	r17,124(sp)
 40018b4:	40800115 	stw	r2,4(r8)
 40018b8:	44000015 	stw	r16,0(r8)
 40018bc:	8c400044 	addi	r17,r17,1
 40018c0:	d8c02015 	stw	r3,128(sp)
 40018c4:	dc401f15 	stw	r17,124(sp)
 40018c8:	008001c4 	movi	r2,7
 40018cc:	14400e16 	blt	r2,r17,4001908 <___vfprintf_internal_r+0x168c>
 40018d0:	45800204 	addi	r22,r8,8
 40018d4:	003eca06 	br	4001400 <__ram_exceptions_end+0xfbff11d0>
 40018d8:	01010074 	movhi	r4,1025
 40018dc:	213dba84 	addi	r4,r4,-2326
 40018e0:	d9002c15 	stw	r4,176(sp)
 40018e4:	d8802c17 	ldw	r2,176(sp)
 40018e8:	1c07883a 	add	r3,r3,r16
 40018ec:	8c400044 	addi	r17,r17,1
 40018f0:	b0800015 	stw	r2,0(r22)
 40018f4:	b4000115 	stw	r16,4(r22)
 40018f8:	d8c02015 	stw	r3,128(sp)
 40018fc:	dc401f15 	stw	r17,124(sp)
 4001900:	008001c4 	movi	r2,7
 4001904:	147ebd0e 	bge	r2,r17,40013fc <__ram_exceptions_end+0xfbff11cc>
 4001908:	d9002d17 	ldw	r4,180(sp)
 400190c:	d9801e04 	addi	r6,sp,120
 4001910:	b80b883a 	mov	r5,r23
 4001914:	4007a5c0 	call	4007a5c <__sprint_r>
 4001918:	103b5c1e 	bne	r2,zero,400068c <__ram_exceptions_end+0xfbff045c>
 400191c:	d8c02017 	ldw	r3,128(sp)
 4001920:	dc401f17 	ldw	r17,124(sp)
 4001924:	dd800404 	addi	r22,sp,16
 4001928:	003eb506 	br	4001400 <__ram_exceptions_end+0xfbff11d0>
 400192c:	d9002d17 	ldw	r4,180(sp)
 4001930:	d9801e04 	addi	r6,sp,120
 4001934:	b80b883a 	mov	r5,r23
 4001938:	4007a5c0 	call	4007a5c <__sprint_r>
 400193c:	103b531e 	bne	r2,zero,400068c <__ram_exceptions_end+0xfbff045c>
 4001940:	d8c02017 	ldw	r3,128(sp)
 4001944:	dc401f17 	ldw	r17,124(sp)
 4001948:	da000404 	addi	r8,sp,16
 400194c:	003e8d06 	br	4001384 <__ram_exceptions_end+0xfbff1154>
 4001950:	d9002d17 	ldw	r4,180(sp)
 4001954:	d9801e04 	addi	r6,sp,120
 4001958:	b80b883a 	mov	r5,r23
 400195c:	4007a5c0 	call	4007a5c <__sprint_r>
 4001960:	103b4a1e 	bne	r2,zero,400068c <__ram_exceptions_end+0xfbff045c>
 4001964:	d8c02017 	ldw	r3,128(sp)
 4001968:	dc401f17 	ldw	r17,124(sp)
 400196c:	dd800404 	addi	r22,sp,16
 4001970:	003e8f06 	br	40013b0 <__ram_exceptions_end+0xfbff1180>
 4001974:	0027883a 	mov	r19,zero
 4001978:	003f4a06 	br	40016a4 <__ram_exceptions_end+0xfbff1474>
 400197c:	d9002d17 	ldw	r4,180(sp)
 4001980:	d9801e04 	addi	r6,sp,120
 4001984:	b80b883a 	mov	r5,r23
 4001988:	4007a5c0 	call	4007a5c <__sprint_r>
 400198c:	103b3f1e 	bne	r2,zero,400068c <__ram_exceptions_end+0xfbff045c>
 4001990:	d8c02017 	ldw	r3,128(sp)
 4001994:	da000404 	addi	r8,sp,16
 4001998:	003c7b06 	br	4000b88 <__ram_exceptions_end+0xfbff0958>
 400199c:	d9402a17 	ldw	r5,168(sp)
 40019a0:	04e7c83a 	sub	r19,zero,r19
 40019a4:	07000b44 	movi	fp,45
 40019a8:	9804c03a 	cmpne	r2,r19,zero
 40019ac:	05adc83a 	sub	r22,zero,r22
 40019b0:	df002785 	stb	fp,158(sp)
 40019b4:	b0adc83a 	sub	r22,r22,r2
 40019b8:	28017b16 	blt	r5,zero,4001fa8 <___vfprintf_internal_r+0x1d2c>
 40019bc:	00bfdfc4 	movi	r2,-129
 40019c0:	90a4703a 	and	r18,r18,r2
 40019c4:	003b8906 	br	40007ec <__ram_exceptions_end+0xfbff05bc>
 40019c8:	d9003617 	ldw	r4,216(sp)
 40019cc:	d9403817 	ldw	r5,224(sp)
 40019d0:	da003d15 	stw	r8,244(sp)
 40019d4:	40076800 	call	4007680 <__fpclassifyd>
 40019d8:	da003d17 	ldw	r8,244(sp)
 40019dc:	1000f026 	beq	r2,zero,4001da0 <___vfprintf_internal_r+0x1b24>
 40019e0:	d9002a17 	ldw	r4,168(sp)
 40019e4:	05bff7c4 	movi	r22,-33
 40019e8:	00bfffc4 	movi	r2,-1
 40019ec:	8dac703a 	and	r22,r17,r22
 40019f0:	20820026 	beq	r4,r2,40021f4 <___vfprintf_internal_r+0x1f78>
 40019f4:	008011c4 	movi	r2,71
 40019f8:	b081f726 	beq	r22,r2,40021d8 <___vfprintf_internal_r+0x1f5c>
 40019fc:	d9003817 	ldw	r4,224(sp)
 4001a00:	90c04014 	ori	r3,r18,256
 4001a04:	d8c02c15 	stw	r3,176(sp)
 4001a08:	20021516 	blt	r4,zero,4002260 <___vfprintf_internal_r+0x1fe4>
 4001a0c:	dcc03817 	ldw	r19,224(sp)
 4001a10:	d8002905 	stb	zero,164(sp)
 4001a14:	00801984 	movi	r2,102
 4001a18:	8881f926 	beq	r17,r2,4002200 <___vfprintf_internal_r+0x1f84>
 4001a1c:	00801184 	movi	r2,70
 4001a20:	88821c26 	beq	r17,r2,4002294 <___vfprintf_internal_r+0x2018>
 4001a24:	00801144 	movi	r2,69
 4001a28:	b081ef26 	beq	r22,r2,40021e8 <___vfprintf_internal_r+0x1f6c>
 4001a2c:	d8c02a17 	ldw	r3,168(sp)
 4001a30:	d8802104 	addi	r2,sp,132
 4001a34:	d8800315 	stw	r2,12(sp)
 4001a38:	d9403617 	ldw	r5,216(sp)
 4001a3c:	d8802504 	addi	r2,sp,148
 4001a40:	d9002d17 	ldw	r4,180(sp)
 4001a44:	d8800215 	stw	r2,8(sp)
 4001a48:	d8802604 	addi	r2,sp,152
 4001a4c:	d8c00015 	stw	r3,0(sp)
 4001a50:	d8800115 	stw	r2,4(sp)
 4001a54:	01c00084 	movi	r7,2
 4001a58:	980d883a 	mov	r6,r19
 4001a5c:	d8c03c15 	stw	r3,240(sp)
 4001a60:	da003d15 	stw	r8,244(sp)
 4001a64:	40029ac0 	call	40029ac <_dtoa_r>
 4001a68:	1021883a 	mov	r16,r2
 4001a6c:	008019c4 	movi	r2,103
 4001a70:	d8c03c17 	ldw	r3,240(sp)
 4001a74:	da003d17 	ldw	r8,244(sp)
 4001a78:	88817126 	beq	r17,r2,4002040 <___vfprintf_internal_r+0x1dc4>
 4001a7c:	008011c4 	movi	r2,71
 4001a80:	88829126 	beq	r17,r2,40024c8 <___vfprintf_internal_r+0x224c>
 4001a84:	80f9883a 	add	fp,r16,r3
 4001a88:	d9003617 	ldw	r4,216(sp)
 4001a8c:	000d883a 	mov	r6,zero
 4001a90:	000f883a 	mov	r7,zero
 4001a94:	980b883a 	mov	r5,r19
 4001a98:	da003d15 	stw	r8,244(sp)
 4001a9c:	400b9bc0 	call	400b9bc <__eqdf2>
 4001aa0:	da003d17 	ldw	r8,244(sp)
 4001aa4:	10018d26 	beq	r2,zero,40020dc <___vfprintf_internal_r+0x1e60>
 4001aa8:	d8802117 	ldw	r2,132(sp)
 4001aac:	1700062e 	bgeu	r2,fp,4001ac8 <___vfprintf_internal_r+0x184c>
 4001ab0:	01000c04 	movi	r4,48
 4001ab4:	10c00044 	addi	r3,r2,1
 4001ab8:	d8c02115 	stw	r3,132(sp)
 4001abc:	11000005 	stb	r4,0(r2)
 4001ac0:	d8802117 	ldw	r2,132(sp)
 4001ac4:	173ffb36 	bltu	r2,fp,4001ab4 <__ram_exceptions_end+0xfbff1884>
 4001ac8:	1405c83a 	sub	r2,r2,r16
 4001acc:	d8803315 	stw	r2,204(sp)
 4001ad0:	008011c4 	movi	r2,71
 4001ad4:	b0817626 	beq	r22,r2,40020b0 <___vfprintf_internal_r+0x1e34>
 4001ad8:	00801944 	movi	r2,101
 4001adc:	1442800e 	bge	r2,r17,40024e0 <___vfprintf_internal_r+0x2264>
 4001ae0:	d8c02617 	ldw	r3,152(sp)
 4001ae4:	00801984 	movi	r2,102
 4001ae8:	d8c03215 	stw	r3,200(sp)
 4001aec:	8881fe26 	beq	r17,r2,40022e8 <___vfprintf_internal_r+0x206c>
 4001af0:	d8c03217 	ldw	r3,200(sp)
 4001af4:	d9003317 	ldw	r4,204(sp)
 4001af8:	1901dd16 	blt	r3,r4,4002270 <___vfprintf_internal_r+0x1ff4>
 4001afc:	9480004c 	andi	r18,r18,1
 4001b00:	90022b1e 	bne	r18,zero,40023b0 <___vfprintf_internal_r+0x2134>
 4001b04:	1805883a 	mov	r2,r3
 4001b08:	18028316 	blt	r3,zero,4002518 <___vfprintf_internal_r+0x229c>
 4001b0c:	d8c03217 	ldw	r3,200(sp)
 4001b10:	044019c4 	movi	r17,103
 4001b14:	d8c02b15 	stw	r3,172(sp)
 4001b18:	df002907 	ldb	fp,164(sp)
 4001b1c:	e001531e 	bne	fp,zero,400206c <___vfprintf_internal_r+0x1df0>
 4001b20:	df002783 	ldbu	fp,158(sp)
 4001b24:	d8802915 	stw	r2,164(sp)
 4001b28:	dc802c17 	ldw	r18,176(sp)
 4001b2c:	d8002a15 	stw	zero,168(sp)
 4001b30:	003baf06 	br	40009f0 <__ram_exceptions_end+0xfbff07c0>
 4001b34:	d8c02e17 	ldw	r3,184(sp)
 4001b38:	d9002e17 	ldw	r4,184(sp)
 4001b3c:	d9402e17 	ldw	r5,184(sp)
 4001b40:	18c00017 	ldw	r3,0(r3)
 4001b44:	21000117 	ldw	r4,4(r4)
 4001b48:	29400204 	addi	r5,r5,8
 4001b4c:	d8c03615 	stw	r3,216(sp)
 4001b50:	d9003815 	stw	r4,224(sp)
 4001b54:	d9402e15 	stw	r5,184(sp)
 4001b58:	003b5006 	br	400089c <__ram_exceptions_end+0xfbff066c>
 4001b5c:	ac400007 	ldb	r17,0(r21)
 4001b60:	003a2806 	br	4000404 <__ram_exceptions_end+0xfbff01d4>
 4001b64:	9080100c 	andi	r2,r18,64
 4001b68:	1000a826 	beq	r2,zero,4001e0c <___vfprintf_internal_r+0x1b90>
 4001b6c:	d8c02e17 	ldw	r3,184(sp)
 4001b70:	002d883a 	mov	r22,zero
 4001b74:	1cc0000b 	ldhu	r19,0(r3)
 4001b78:	18c00104 	addi	r3,r3,4
 4001b7c:	d8c02e15 	stw	r3,184(sp)
 4001b80:	003caf06 	br	4000e40 <__ram_exceptions_end+0xfbff0c10>
 4001b84:	d9002e17 	ldw	r4,184(sp)
 4001b88:	d9402a17 	ldw	r5,168(sp)
 4001b8c:	002d883a 	mov	r22,zero
 4001b90:	20800104 	addi	r2,r4,4
 4001b94:	24c00017 	ldw	r19,0(r4)
 4001b98:	283ebb0e 	bge	r5,zero,4001688 <__ram_exceptions_end+0xfbff1458>
 4001b9c:	003ef106 	br	4001764 <__ram_exceptions_end+0xfbff1534>
 4001ba0:	9080040c 	andi	r2,r18,16
 4001ba4:	1000921e 	bne	r2,zero,4001df0 <___vfprintf_internal_r+0x1b74>
 4001ba8:	9480100c 	andi	r18,r18,64
 4001bac:	90013926 	beq	r18,zero,4002094 <___vfprintf_internal_r+0x1e18>
 4001bb0:	d9402e17 	ldw	r5,184(sp)
 4001bb4:	d8c02f17 	ldw	r3,188(sp)
 4001bb8:	28800017 	ldw	r2,0(r5)
 4001bbc:	29400104 	addi	r5,r5,4
 4001bc0:	d9402e15 	stw	r5,184(sp)
 4001bc4:	10c0000d 	sth	r3,0(r2)
 4001bc8:	0039e406 	br	400035c <__ram_exceptions_end+0xfbff012c>
 4001bcc:	9080100c 	andi	r2,r18,64
 4001bd0:	10008026 	beq	r2,zero,4001dd4 <___vfprintf_internal_r+0x1b58>
 4001bd4:	d8802e17 	ldw	r2,184(sp)
 4001bd8:	14c0000f 	ldh	r19,0(r2)
 4001bdc:	10800104 	addi	r2,r2,4
 4001be0:	d8802e15 	stw	r2,184(sp)
 4001be4:	982dd7fa 	srai	r22,r19,31
 4001be8:	b005883a 	mov	r2,r22
 4001bec:	003af706 	br	40007cc <__ram_exceptions_end+0xfbff059c>
 4001bf0:	9080100c 	andi	r2,r18,64
 4001bf4:	d8002785 	stb	zero,158(sp)
 4001bf8:	10008a1e 	bne	r2,zero,4001e24 <___vfprintf_internal_r+0x1ba8>
 4001bfc:	d9002e17 	ldw	r4,184(sp)
 4001c00:	d9402a17 	ldw	r5,168(sp)
 4001c04:	002d883a 	mov	r22,zero
 4001c08:	20800104 	addi	r2,r4,4
 4001c0c:	24c00017 	ldw	r19,0(r4)
 4001c10:	283e4b0e 	bge	r5,zero,4001540 <__ram_exceptions_end+0xfbff1310>
 4001c14:	9d86b03a 	or	r3,r19,r22
 4001c18:	d8802e15 	stw	r2,184(sp)
 4001c1c:	183e4c1e 	bne	r3,zero,4001550 <__ram_exceptions_end+0xfbff1320>
 4001c20:	0039883a 	mov	fp,zero
 4001c24:	0005883a 	mov	r2,zero
 4001c28:	003d4006 	br	400112c <__ram_exceptions_end+0xfbff0efc>
 4001c2c:	01410074 	movhi	r5,1025
 4001c30:	297dba84 	addi	r5,r5,-2326
 4001c34:	d9402c15 	stw	r5,176(sp)
 4001c38:	d9402c17 	ldw	r5,176(sp)
 4001c3c:	1c47883a 	add	r3,r3,r17
 4001c40:	10800044 	addi	r2,r2,1
 4001c44:	41400015 	stw	r5,0(r8)
 4001c48:	44400115 	stw	r17,4(r8)
 4001c4c:	d8c02015 	stw	r3,128(sp)
 4001c50:	d8801f15 	stw	r2,124(sp)
 4001c54:	010001c4 	movi	r4,7
 4001c58:	20bec816 	blt	r4,r2,400177c <__ram_exceptions_end+0xfbff154c>
 4001c5c:	42000204 	addi	r8,r8,8
 4001c60:	003ecd06 	br	4001798 <__ram_exceptions_end+0xfbff1568>
 4001c64:	d9002a17 	ldw	r4,168(sp)
 4001c68:	d8002785 	stb	zero,158(sp)
 4001c6c:	203d2d16 	blt	r4,zero,4001124 <__ram_exceptions_end+0xfbff0ef4>
 4001c70:	00bfdfc4 	movi	r2,-129
 4001c74:	90a4703a 	and	r18,r18,r2
 4001c78:	003a6106 	br	4000600 <__ram_exceptions_end+0xfbff03d0>
 4001c7c:	01010074 	movhi	r4,1025
 4001c80:	213dba84 	addi	r4,r4,-2326
 4001c84:	d9002c15 	stw	r4,176(sp)
 4001c88:	003bea06 	br	4000c34 <__ram_exceptions_end+0xfbff0a04>
 4001c8c:	d9002d17 	ldw	r4,180(sp)
 4001c90:	d9801e04 	addi	r6,sp,120
 4001c94:	b80b883a 	mov	r5,r23
 4001c98:	4007a5c0 	call	4007a5c <__sprint_r>
 4001c9c:	103a7b1e 	bne	r2,zero,400068c <__ram_exceptions_end+0xfbff045c>
 4001ca0:	d8c02017 	ldw	r3,128(sp)
 4001ca4:	da000404 	addi	r8,sp,16
 4001ca8:	003d4106 	br	40011b0 <__ram_exceptions_end+0xfbff0f80>
 4001cac:	d8801f17 	ldw	r2,124(sp)
 4001cb0:	01410074 	movhi	r5,1025
 4001cb4:	01000044 	movi	r4,1
 4001cb8:	18c00044 	addi	r3,r3,1
 4001cbc:	10800044 	addi	r2,r2,1
 4001cc0:	297dba04 	addi	r5,r5,-2328
 4001cc4:	41000115 	stw	r4,4(r8)
 4001cc8:	41400015 	stw	r5,0(r8)
 4001ccc:	d8c02015 	stw	r3,128(sp)
 4001cd0:	d8801f15 	stw	r2,124(sp)
 4001cd4:	010001c4 	movi	r4,7
 4001cd8:	20805c16 	blt	r4,r2,4001e4c <___vfprintf_internal_r+0x1bd0>
 4001cdc:	42000204 	addi	r8,r8,8
 4001ce0:	8800041e 	bne	r17,zero,4001cf4 <___vfprintf_internal_r+0x1a78>
 4001ce4:	d8803317 	ldw	r2,204(sp)
 4001ce8:	1000021e 	bne	r2,zero,4001cf4 <___vfprintf_internal_r+0x1a78>
 4001cec:	9080004c 	andi	r2,r18,1
 4001cf0:	103be726 	beq	r2,zero,4000c90 <__ram_exceptions_end+0xfbff0a60>
 4001cf4:	d9003717 	ldw	r4,220(sp)
 4001cf8:	d8801f17 	ldw	r2,124(sp)
 4001cfc:	d9403417 	ldw	r5,208(sp)
 4001d00:	20c7883a 	add	r3,r4,r3
 4001d04:	10800044 	addi	r2,r2,1
 4001d08:	41000115 	stw	r4,4(r8)
 4001d0c:	41400015 	stw	r5,0(r8)
 4001d10:	d8c02015 	stw	r3,128(sp)
 4001d14:	d8801f15 	stw	r2,124(sp)
 4001d18:	010001c4 	movi	r4,7
 4001d1c:	20812116 	blt	r4,r2,40021a4 <___vfprintf_internal_r+0x1f28>
 4001d20:	42000204 	addi	r8,r8,8
 4001d24:	0463c83a 	sub	r17,zero,r17
 4001d28:	0440730e 	bge	zero,r17,4001ef8 <___vfprintf_internal_r+0x1c7c>
 4001d2c:	05800404 	movi	r22,16
 4001d30:	b440860e 	bge	r22,r17,4001f4c <___vfprintf_internal_r+0x1cd0>
 4001d34:	01410074 	movhi	r5,1025
 4001d38:	297dba84 	addi	r5,r5,-2326
 4001d3c:	d9402c15 	stw	r5,176(sp)
 4001d40:	070001c4 	movi	fp,7
 4001d44:	dcc02d17 	ldw	r19,180(sp)
 4001d48:	00000306 	br	4001d58 <___vfprintf_internal_r+0x1adc>
 4001d4c:	42000204 	addi	r8,r8,8
 4001d50:	8c7ffc04 	addi	r17,r17,-16
 4001d54:	b440800e 	bge	r22,r17,4001f58 <___vfprintf_internal_r+0x1cdc>
 4001d58:	18c00404 	addi	r3,r3,16
 4001d5c:	10800044 	addi	r2,r2,1
 4001d60:	45000015 	stw	r20,0(r8)
 4001d64:	45800115 	stw	r22,4(r8)
 4001d68:	d8c02015 	stw	r3,128(sp)
 4001d6c:	d8801f15 	stw	r2,124(sp)
 4001d70:	e0bff60e 	bge	fp,r2,4001d4c <__ram_exceptions_end+0xfbff1b1c>
 4001d74:	d9801e04 	addi	r6,sp,120
 4001d78:	b80b883a 	mov	r5,r23
 4001d7c:	9809883a 	mov	r4,r19
 4001d80:	4007a5c0 	call	4007a5c <__sprint_r>
 4001d84:	103a411e 	bne	r2,zero,400068c <__ram_exceptions_end+0xfbff045c>
 4001d88:	d8c02017 	ldw	r3,128(sp)
 4001d8c:	d8801f17 	ldw	r2,124(sp)
 4001d90:	da000404 	addi	r8,sp,16
 4001d94:	003fee06 	br	4001d50 <__ram_exceptions_end+0xfbff1b20>
 4001d98:	00bfffc4 	movi	r2,-1
 4001d9c:	003a3f06 	br	400069c <__ram_exceptions_end+0xfbff046c>
 4001da0:	008011c4 	movi	r2,71
 4001da4:	1440b816 	blt	r2,r17,4002088 <___vfprintf_internal_r+0x1e0c>
 4001da8:	04010074 	movhi	r16,1025
 4001dac:	843dac04 	addi	r16,r16,-2384
 4001db0:	00c000c4 	movi	r3,3
 4001db4:	00bfdfc4 	movi	r2,-129
 4001db8:	d8c02915 	stw	r3,164(sp)
 4001dbc:	90a4703a 	and	r18,r18,r2
 4001dc0:	df002783 	ldbu	fp,158(sp)
 4001dc4:	d8c02b15 	stw	r3,172(sp)
 4001dc8:	d8002a15 	stw	zero,168(sp)
 4001dcc:	d8003215 	stw	zero,200(sp)
 4001dd0:	003b0706 	br	40009f0 <__ram_exceptions_end+0xfbff07c0>
 4001dd4:	d8c02e17 	ldw	r3,184(sp)
 4001dd8:	1cc00017 	ldw	r19,0(r3)
 4001ddc:	18c00104 	addi	r3,r3,4
 4001de0:	d8c02e15 	stw	r3,184(sp)
 4001de4:	982dd7fa 	srai	r22,r19,31
 4001de8:	b005883a 	mov	r2,r22
 4001dec:	003a7706 	br	40007cc <__ram_exceptions_end+0xfbff059c>
 4001df0:	d8c02e17 	ldw	r3,184(sp)
 4001df4:	d9002f17 	ldw	r4,188(sp)
 4001df8:	18800017 	ldw	r2,0(r3)
 4001dfc:	18c00104 	addi	r3,r3,4
 4001e00:	d8c02e15 	stw	r3,184(sp)
 4001e04:	11000015 	stw	r4,0(r2)
 4001e08:	00395406 	br	400035c <__ram_exceptions_end+0xfbff012c>
 4001e0c:	d9002e17 	ldw	r4,184(sp)
 4001e10:	002d883a 	mov	r22,zero
 4001e14:	24c00017 	ldw	r19,0(r4)
 4001e18:	21000104 	addi	r4,r4,4
 4001e1c:	d9002e15 	stw	r4,184(sp)
 4001e20:	003c0706 	br	4000e40 <__ram_exceptions_end+0xfbff0c10>
 4001e24:	d9402e17 	ldw	r5,184(sp)
 4001e28:	d8c02a17 	ldw	r3,168(sp)
 4001e2c:	002d883a 	mov	r22,zero
 4001e30:	28800104 	addi	r2,r5,4
 4001e34:	2cc0000b 	ldhu	r19,0(r5)
 4001e38:	183dc10e 	bge	r3,zero,4001540 <__ram_exceptions_end+0xfbff1310>
 4001e3c:	003f7506 	br	4001c14 <__ram_exceptions_end+0xfbff19e4>
 4001e40:	04010074 	movhi	r16,1025
 4001e44:	843daa04 	addi	r16,r16,-2392
 4001e48:	003aa706 	br	40008e8 <__ram_exceptions_end+0xfbff06b8>
 4001e4c:	d9002d17 	ldw	r4,180(sp)
 4001e50:	d9801e04 	addi	r6,sp,120
 4001e54:	b80b883a 	mov	r5,r23
 4001e58:	4007a5c0 	call	4007a5c <__sprint_r>
 4001e5c:	103a0b1e 	bne	r2,zero,400068c <__ram_exceptions_end+0xfbff045c>
 4001e60:	dc402617 	ldw	r17,152(sp)
 4001e64:	d8c02017 	ldw	r3,128(sp)
 4001e68:	da000404 	addi	r8,sp,16
 4001e6c:	003f9c06 	br	4001ce0 <__ram_exceptions_end+0xfbff1ab0>
 4001e70:	ac400043 	ldbu	r17,1(r21)
 4001e74:	84000814 	ori	r16,r16,32
 4001e78:	ad400044 	addi	r21,r21,1
 4001e7c:	8c403fcc 	andi	r17,r17,255
 4001e80:	8c40201c 	xori	r17,r17,128
 4001e84:	8c7fe004 	addi	r17,r17,-128
 4001e88:	00395e06 	br	4000404 <__ram_exceptions_end+0xfbff01d4>
 4001e8c:	d8c02e15 	stw	r3,184(sp)
 4001e90:	0039883a 	mov	fp,zero
 4001e94:	003e3506 	br	400176c <__ram_exceptions_end+0xfbff153c>
 4001e98:	d9002d17 	ldw	r4,180(sp)
 4001e9c:	d9801e04 	addi	r6,sp,120
 4001ea0:	b80b883a 	mov	r5,r23
 4001ea4:	4007a5c0 	call	4007a5c <__sprint_r>
 4001ea8:	1039f81e 	bne	r2,zero,400068c <__ram_exceptions_end+0xfbff045c>
 4001eac:	d8c02017 	ldw	r3,128(sp)
 4001eb0:	da000404 	addi	r8,sp,16
 4001eb4:	003cd006 	br	40011f8 <__ram_exceptions_end+0xfbff0fc8>
 4001eb8:	8009883a 	mov	r4,r16
 4001ebc:	df003d15 	stw	fp,244(sp)
 4001ec0:	40001e40 	call	40001e4 <strlen>
 4001ec4:	d8802b15 	stw	r2,172(sp)
 4001ec8:	da003d17 	ldw	r8,244(sp)
 4001ecc:	103c200e 	bge	r2,zero,4000f50 <__ram_exceptions_end+0xfbff0d20>
 4001ed0:	0005883a 	mov	r2,zero
 4001ed4:	003c1e06 	br	4000f50 <__ram_exceptions_end+0xfbff0d20>
 4001ed8:	d9002d17 	ldw	r4,180(sp)
 4001edc:	d9801e04 	addi	r6,sp,120
 4001ee0:	b80b883a 	mov	r5,r23
 4001ee4:	4007a5c0 	call	4007a5c <__sprint_r>
 4001ee8:	1039e81e 	bne	r2,zero,400068c <__ram_exceptions_end+0xfbff045c>
 4001eec:	d8c02017 	ldw	r3,128(sp)
 4001ef0:	d8801f17 	ldw	r2,124(sp)
 4001ef4:	da000404 	addi	r8,sp,16
 4001ef8:	d9403317 	ldw	r5,204(sp)
 4001efc:	10800044 	addi	r2,r2,1
 4001f00:	44000015 	stw	r16,0(r8)
 4001f04:	28c7883a 	add	r3,r5,r3
 4001f08:	003b5b06 	br	4000c78 <__ram_exceptions_end+0xfbff0a48>
 4001f0c:	01010074 	movhi	r4,1025
 4001f10:	213dbe84 	addi	r4,r4,-2310
 4001f14:	d9003515 	stw	r4,212(sp)
 4001f18:	003af206 	br	4000ae4 <__ram_exceptions_end+0xfbff08b4>
 4001f1c:	013fffc4 	movi	r4,-1
 4001f20:	003a0806 	br	4000744 <__ram_exceptions_end+0xfbff0514>
 4001f24:	0023883a 	mov	r17,zero
 4001f28:	003d9d06 	br	40015a0 <__ram_exceptions_end+0xfbff1370>
 4001f2c:	d9002d17 	ldw	r4,180(sp)
 4001f30:	d9801e04 	addi	r6,sp,120
 4001f34:	b80b883a 	mov	r5,r23
 4001f38:	4007a5c0 	call	4007a5c <__sprint_r>
 4001f3c:	1039d31e 	bne	r2,zero,400068c <__ram_exceptions_end+0xfbff045c>
 4001f40:	d8c02017 	ldw	r3,128(sp)
 4001f44:	da000404 	addi	r8,sp,16
 4001f48:	003d9406 	br	400159c <__ram_exceptions_end+0xfbff136c>
 4001f4c:	01010074 	movhi	r4,1025
 4001f50:	213dba84 	addi	r4,r4,-2326
 4001f54:	d9002c15 	stw	r4,176(sp)
 4001f58:	d9002c17 	ldw	r4,176(sp)
 4001f5c:	1c47883a 	add	r3,r3,r17
 4001f60:	10800044 	addi	r2,r2,1
 4001f64:	41000015 	stw	r4,0(r8)
 4001f68:	44400115 	stw	r17,4(r8)
 4001f6c:	d8c02015 	stw	r3,128(sp)
 4001f70:	d8801f15 	stw	r2,124(sp)
 4001f74:	010001c4 	movi	r4,7
 4001f78:	20bfd716 	blt	r4,r2,4001ed8 <__ram_exceptions_end+0xfbff1ca8>
 4001f7c:	42000204 	addi	r8,r8,8
 4001f80:	003fdd06 	br	4001ef8 <__ram_exceptions_end+0xfbff1cc8>
 4001f84:	d9002d17 	ldw	r4,180(sp)
 4001f88:	d9801e04 	addi	r6,sp,120
 4001f8c:	b80b883a 	mov	r5,r23
 4001f90:	4007a5c0 	call	4007a5c <__sprint_r>
 4001f94:	1039bd1e 	bne	r2,zero,400068c <__ram_exceptions_end+0xfbff045c>
 4001f98:	d8802617 	ldw	r2,152(sp)
 4001f9c:	d8c02017 	ldw	r3,128(sp)
 4001fa0:	da000404 	addi	r8,sp,16
 4001fa4:	003e1006 	br	40017e8 <__ram_exceptions_end+0xfbff15b8>
 4001fa8:	00800044 	movi	r2,1
 4001fac:	10803fcc 	andi	r2,r2,255
 4001fb0:	00c00044 	movi	r3,1
 4001fb4:	10fa0d26 	beq	r2,r3,40007ec <__ram_exceptions_end+0xfbff05bc>
 4001fb8:	00c00084 	movi	r3,2
 4001fbc:	10fbaf26 	beq	r2,r3,4000e7c <__ram_exceptions_end+0xfbff0c4c>
 4001fc0:	003a6d06 	br	4000978 <__ram_exceptions_end+0xfbff0748>
 4001fc4:	01010074 	movhi	r4,1025
 4001fc8:	213dbe84 	addi	r4,r4,-2310
 4001fcc:	d9003515 	stw	r4,212(sp)
 4001fd0:	003b5406 	br	4000d24 <__ram_exceptions_end+0xfbff0af4>
 4001fd4:	d8802a17 	ldw	r2,168(sp)
 4001fd8:	00c00184 	movi	r3,6
 4001fdc:	1880012e 	bgeu	r3,r2,4001fe4 <___vfprintf_internal_r+0x1d68>
 4001fe0:	1805883a 	mov	r2,r3
 4001fe4:	d8802b15 	stw	r2,172(sp)
 4001fe8:	1000ef16 	blt	r2,zero,40023a8 <___vfprintf_internal_r+0x212c>
 4001fec:	04010074 	movhi	r16,1025
 4001ff0:	d8802915 	stw	r2,164(sp)
 4001ff4:	dcc02e15 	stw	r19,184(sp)
 4001ff8:	d8002a15 	stw	zero,168(sp)
 4001ffc:	d8003215 	stw	zero,200(sp)
 4002000:	843db804 	addi	r16,r16,-2336
 4002004:	0039883a 	mov	fp,zero
 4002008:	003a8006 	br	4000a0c <__ram_exceptions_end+0xfbff07dc>
 400200c:	0021883a 	mov	r16,zero
 4002010:	003e0706 	br	4001830 <__ram_exceptions_end+0xfbff1600>
 4002014:	d9002d17 	ldw	r4,180(sp)
 4002018:	d9801e04 	addi	r6,sp,120
 400201c:	b80b883a 	mov	r5,r23
 4002020:	4007a5c0 	call	4007a5c <__sprint_r>
 4002024:	1039991e 	bne	r2,zero,400068c <__ram_exceptions_end+0xfbff045c>
 4002028:	d8802617 	ldw	r2,152(sp)
 400202c:	d9403317 	ldw	r5,204(sp)
 4002030:	d8c02017 	ldw	r3,128(sp)
 4002034:	da000404 	addi	r8,sp,16
 4002038:	2885c83a 	sub	r2,r5,r2
 400203c:	003dfb06 	br	400182c <__ram_exceptions_end+0xfbff15fc>
 4002040:	9080004c 	andi	r2,r18,1
 4002044:	103e8f1e 	bne	r2,zero,4001a84 <__ram_exceptions_end+0xfbff1854>
 4002048:	d8802117 	ldw	r2,132(sp)
 400204c:	003e9e06 	br	4001ac8 <__ram_exceptions_end+0xfbff1898>
 4002050:	1025883a 	mov	r18,r2
 4002054:	0039883a 	mov	fp,zero
 4002058:	00800084 	movi	r2,2
 400205c:	003fd306 	br	4001fac <__ram_exceptions_end+0xfbff1d7c>
 4002060:	07000b44 	movi	fp,45
 4002064:	df002785 	stb	fp,158(sp)
 4002068:	003a1b06 	br	40008d8 <__ram_exceptions_end+0xfbff06a8>
 400206c:	00c00b44 	movi	r3,45
 4002070:	d8c02785 	stb	r3,158(sp)
 4002074:	d8802915 	stw	r2,164(sp)
 4002078:	dc802c17 	ldw	r18,176(sp)
 400207c:	d8002a15 	stw	zero,168(sp)
 4002080:	07000b44 	movi	fp,45
 4002084:	003a5e06 	br	4000a00 <__ram_exceptions_end+0xfbff07d0>
 4002088:	04010074 	movhi	r16,1025
 400208c:	843dad04 	addi	r16,r16,-2380
 4002090:	003f4706 	br	4001db0 <__ram_exceptions_end+0xfbff1b80>
 4002094:	d9002e17 	ldw	r4,184(sp)
 4002098:	d9402f17 	ldw	r5,188(sp)
 400209c:	20800017 	ldw	r2,0(r4)
 40020a0:	21000104 	addi	r4,r4,4
 40020a4:	d9002e15 	stw	r4,184(sp)
 40020a8:	11400015 	stw	r5,0(r2)
 40020ac:	0038ab06 	br	400035c <__ram_exceptions_end+0xfbff012c>
 40020b0:	dd802617 	ldw	r22,152(sp)
 40020b4:	00bfff44 	movi	r2,-3
 40020b8:	b0801c16 	blt	r22,r2,400212c <___vfprintf_internal_r+0x1eb0>
 40020bc:	d9402a17 	ldw	r5,168(sp)
 40020c0:	2d801a16 	blt	r5,r22,400212c <___vfprintf_internal_r+0x1eb0>
 40020c4:	dd803215 	stw	r22,200(sp)
 40020c8:	003e8906 	br	4001af0 <__ram_exceptions_end+0xfbff18c0>
 40020cc:	01010074 	movhi	r4,1025
 40020d0:	213dba84 	addi	r4,r4,-2326
 40020d4:	d9002c15 	stw	r4,176(sp)
 40020d8:	003c9106 	br	4001320 <__ram_exceptions_end+0xfbff10f0>
 40020dc:	e005883a 	mov	r2,fp
 40020e0:	003e7906 	br	4001ac8 <__ram_exceptions_end+0xfbff1898>
 40020e4:	d9002a17 	ldw	r4,168(sp)
 40020e8:	df002783 	ldbu	fp,158(sp)
 40020ec:	dcc02e15 	stw	r19,184(sp)
 40020f0:	d9002915 	stw	r4,164(sp)
 40020f4:	d9002b15 	stw	r4,172(sp)
 40020f8:	d8002a15 	stw	zero,168(sp)
 40020fc:	d8003215 	stw	zero,200(sp)
 4002100:	003a3b06 	br	40009f0 <__ram_exceptions_end+0xfbff07c0>
 4002104:	9080004c 	andi	r2,r18,1
 4002108:	0039883a 	mov	fp,zero
 400210c:	10000426 	beq	r2,zero,4002120 <___vfprintf_internal_r+0x1ea4>
 4002110:	00800c04 	movi	r2,48
 4002114:	dc001dc4 	addi	r16,sp,119
 4002118:	d8801dc5 	stb	r2,119(sp)
 400211c:	003b6406 	br	4000eb0 <__ram_exceptions_end+0xfbff0c80>
 4002120:	d8002b15 	stw	zero,172(sp)
 4002124:	dc001e04 	addi	r16,sp,120
 4002128:	003a2b06 	br	40009d8 <__ram_exceptions_end+0xfbff07a8>
 400212c:	8c7fff84 	addi	r17,r17,-2
 4002130:	b5bfffc4 	addi	r22,r22,-1
 4002134:	dd802615 	stw	r22,152(sp)
 4002138:	dc4022c5 	stb	r17,139(sp)
 400213c:	b000bf16 	blt	r22,zero,400243c <___vfprintf_internal_r+0x21c0>
 4002140:	00800ac4 	movi	r2,43
 4002144:	d8802305 	stb	r2,140(sp)
 4002148:	00800244 	movi	r2,9
 400214c:	15807016 	blt	r2,r22,4002310 <___vfprintf_internal_r+0x2094>
 4002150:	00800c04 	movi	r2,48
 4002154:	b5800c04 	addi	r22,r22,48
 4002158:	d8802345 	stb	r2,141(sp)
 400215c:	dd802385 	stb	r22,142(sp)
 4002160:	d88023c4 	addi	r2,sp,143
 4002164:	df0022c4 	addi	fp,sp,139
 4002168:	d8c03317 	ldw	r3,204(sp)
 400216c:	1739c83a 	sub	fp,r2,fp
 4002170:	d9003317 	ldw	r4,204(sp)
 4002174:	e0c7883a 	add	r3,fp,r3
 4002178:	df003a15 	stw	fp,232(sp)
 400217c:	d8c02b15 	stw	r3,172(sp)
 4002180:	00800044 	movi	r2,1
 4002184:	1100b30e 	bge	r2,r4,4002454 <___vfprintf_internal_r+0x21d8>
 4002188:	d8c02b17 	ldw	r3,172(sp)
 400218c:	18c00044 	addi	r3,r3,1
 4002190:	d8c02b15 	stw	r3,172(sp)
 4002194:	1805883a 	mov	r2,r3
 4002198:	1800ac16 	blt	r3,zero,400244c <___vfprintf_internal_r+0x21d0>
 400219c:	d8003215 	stw	zero,200(sp)
 40021a0:	003e5d06 	br	4001b18 <__ram_exceptions_end+0xfbff18e8>
 40021a4:	d9002d17 	ldw	r4,180(sp)
 40021a8:	d9801e04 	addi	r6,sp,120
 40021ac:	b80b883a 	mov	r5,r23
 40021b0:	4007a5c0 	call	4007a5c <__sprint_r>
 40021b4:	1039351e 	bne	r2,zero,400068c <__ram_exceptions_end+0xfbff045c>
 40021b8:	dc402617 	ldw	r17,152(sp)
 40021bc:	d8c02017 	ldw	r3,128(sp)
 40021c0:	d8801f17 	ldw	r2,124(sp)
 40021c4:	da000404 	addi	r8,sp,16
 40021c8:	003ed606 	br	4001d24 <__ram_exceptions_end+0xfbff1af4>
 40021cc:	182b883a 	mov	r21,r3
 40021d0:	d8002a15 	stw	zero,168(sp)
 40021d4:	00388c06 	br	4000408 <__ram_exceptions_end+0xfbff01d8>
 40021d8:	d8802a17 	ldw	r2,168(sp)
 40021dc:	103e071e 	bne	r2,zero,40019fc <__ram_exceptions_end+0xfbff17cc>
 40021e0:	dc002a15 	stw	r16,168(sp)
 40021e4:	003e0506 	br	40019fc <__ram_exceptions_end+0xfbff17cc>
 40021e8:	d9002a17 	ldw	r4,168(sp)
 40021ec:	20c00044 	addi	r3,r4,1
 40021f0:	003e0f06 	br	4001a30 <__ram_exceptions_end+0xfbff1800>
 40021f4:	01400184 	movi	r5,6
 40021f8:	d9402a15 	stw	r5,168(sp)
 40021fc:	003dff06 	br	40019fc <__ram_exceptions_end+0xfbff17cc>
 4002200:	d8802104 	addi	r2,sp,132
 4002204:	d8800315 	stw	r2,12(sp)
 4002208:	d8802504 	addi	r2,sp,148
 400220c:	d8800215 	stw	r2,8(sp)
 4002210:	d8802604 	addi	r2,sp,152
 4002214:	d8800115 	stw	r2,4(sp)
 4002218:	d8802a17 	ldw	r2,168(sp)
 400221c:	d9403617 	ldw	r5,216(sp)
 4002220:	d9002d17 	ldw	r4,180(sp)
 4002224:	d8800015 	stw	r2,0(sp)
 4002228:	01c000c4 	movi	r7,3
 400222c:	980d883a 	mov	r6,r19
 4002230:	da003d15 	stw	r8,244(sp)
 4002234:	40029ac0 	call	40029ac <_dtoa_r>
 4002238:	d8c02a17 	ldw	r3,168(sp)
 400223c:	da003d17 	ldw	r8,244(sp)
 4002240:	1021883a 	mov	r16,r2
 4002244:	10f9883a 	add	fp,r2,r3
 4002248:	81000007 	ldb	r4,0(r16)
 400224c:	00800c04 	movi	r2,48
 4002250:	20805e26 	beq	r4,r2,40023cc <___vfprintf_internal_r+0x2150>
 4002254:	d8c02617 	ldw	r3,152(sp)
 4002258:	e0f9883a 	add	fp,fp,r3
 400225c:	003e0a06 	br	4001a88 <__ram_exceptions_end+0xfbff1858>
 4002260:	00c00b44 	movi	r3,45
 4002264:	24e0003c 	xorhi	r19,r4,32768
 4002268:	d8c02905 	stb	r3,164(sp)
 400226c:	003de906 	br	4001a14 <__ram_exceptions_end+0xfbff17e4>
 4002270:	d8c03217 	ldw	r3,200(sp)
 4002274:	00c07a0e 	bge	zero,r3,4002460 <___vfprintf_internal_r+0x21e4>
 4002278:	00800044 	movi	r2,1
 400227c:	d9003317 	ldw	r4,204(sp)
 4002280:	1105883a 	add	r2,r2,r4
 4002284:	d8802b15 	stw	r2,172(sp)
 4002288:	10004e16 	blt	r2,zero,40023c4 <___vfprintf_internal_r+0x2148>
 400228c:	044019c4 	movi	r17,103
 4002290:	003e2106 	br	4001b18 <__ram_exceptions_end+0xfbff18e8>
 4002294:	d9002a17 	ldw	r4,168(sp)
 4002298:	d8802104 	addi	r2,sp,132
 400229c:	d8800315 	stw	r2,12(sp)
 40022a0:	d9000015 	stw	r4,0(sp)
 40022a4:	d8802504 	addi	r2,sp,148
 40022a8:	d9403617 	ldw	r5,216(sp)
 40022ac:	d9002d17 	ldw	r4,180(sp)
 40022b0:	d8800215 	stw	r2,8(sp)
 40022b4:	d8802604 	addi	r2,sp,152
 40022b8:	d8800115 	stw	r2,4(sp)
 40022bc:	01c000c4 	movi	r7,3
 40022c0:	980d883a 	mov	r6,r19
 40022c4:	da003d15 	stw	r8,244(sp)
 40022c8:	40029ac0 	call	40029ac <_dtoa_r>
 40022cc:	d8c02a17 	ldw	r3,168(sp)
 40022d0:	da003d17 	ldw	r8,244(sp)
 40022d4:	1021883a 	mov	r16,r2
 40022d8:	00801184 	movi	r2,70
 40022dc:	80f9883a 	add	fp,r16,r3
 40022e0:	88bfd926 	beq	r17,r2,4002248 <__ram_exceptions_end+0xfbff2018>
 40022e4:	003de806 	br	4001a88 <__ram_exceptions_end+0xfbff1858>
 40022e8:	d9002a17 	ldw	r4,168(sp)
 40022ec:	00c04d0e 	bge	zero,r3,4002424 <___vfprintf_internal_r+0x21a8>
 40022f0:	2000441e 	bne	r4,zero,4002404 <___vfprintf_internal_r+0x2188>
 40022f4:	9480004c 	andi	r18,r18,1
 40022f8:	9000421e 	bne	r18,zero,4002404 <___vfprintf_internal_r+0x2188>
 40022fc:	1805883a 	mov	r2,r3
 4002300:	18006f16 	blt	r3,zero,40024c0 <___vfprintf_internal_r+0x2244>
 4002304:	d8c03217 	ldw	r3,200(sp)
 4002308:	d8c02b15 	stw	r3,172(sp)
 400230c:	003e0206 	br	4001b18 <__ram_exceptions_end+0xfbff18e8>
 4002310:	df0022c4 	addi	fp,sp,139
 4002314:	dc002a15 	stw	r16,168(sp)
 4002318:	4027883a 	mov	r19,r8
 400231c:	e021883a 	mov	r16,fp
 4002320:	b009883a 	mov	r4,r22
 4002324:	01400284 	movi	r5,10
 4002328:	400a5e80 	call	400a5e8 <__modsi3>
 400232c:	10800c04 	addi	r2,r2,48
 4002330:	843fffc4 	addi	r16,r16,-1
 4002334:	b009883a 	mov	r4,r22
 4002338:	01400284 	movi	r5,10
 400233c:	80800005 	stb	r2,0(r16)
 4002340:	400a5640 	call	400a564 <__divsi3>
 4002344:	102d883a 	mov	r22,r2
 4002348:	00800244 	movi	r2,9
 400234c:	15bff416 	blt	r2,r22,4002320 <__ram_exceptions_end+0xfbff20f0>
 4002350:	9811883a 	mov	r8,r19
 4002354:	b0800c04 	addi	r2,r22,48
 4002358:	8027883a 	mov	r19,r16
 400235c:	997fffc4 	addi	r5,r19,-1
 4002360:	98bfffc5 	stb	r2,-1(r19)
 4002364:	dc002a17 	ldw	r16,168(sp)
 4002368:	2f006d2e 	bgeu	r5,fp,4002520 <___vfprintf_internal_r+0x22a4>
 400236c:	d9c02384 	addi	r7,sp,142
 4002370:	3ccfc83a 	sub	r7,r7,r19
 4002374:	d9002344 	addi	r4,sp,141
 4002378:	e1cf883a 	add	r7,fp,r7
 400237c:	00000106 	br	4002384 <___vfprintf_internal_r+0x2108>
 4002380:	28800003 	ldbu	r2,0(r5)
 4002384:	20800005 	stb	r2,0(r4)
 4002388:	21000044 	addi	r4,r4,1
 400238c:	29400044 	addi	r5,r5,1
 4002390:	393ffb1e 	bne	r7,r4,4002380 <__ram_exceptions_end+0xfbff2150>
 4002394:	d8802304 	addi	r2,sp,140
 4002398:	14c5c83a 	sub	r2,r2,r19
 400239c:	d8c02344 	addi	r3,sp,141
 40023a0:	1885883a 	add	r2,r3,r2
 40023a4:	003f7006 	br	4002168 <__ram_exceptions_end+0xfbff1f38>
 40023a8:	0005883a 	mov	r2,zero
 40023ac:	003f0f06 	br	4001fec <__ram_exceptions_end+0xfbff1dbc>
 40023b0:	d8c03217 	ldw	r3,200(sp)
 40023b4:	18c00044 	addi	r3,r3,1
 40023b8:	d8c02b15 	stw	r3,172(sp)
 40023bc:	1805883a 	mov	r2,r3
 40023c0:	183fb20e 	bge	r3,zero,400228c <__ram_exceptions_end+0xfbff205c>
 40023c4:	0005883a 	mov	r2,zero
 40023c8:	003fb006 	br	400228c <__ram_exceptions_end+0xfbff205c>
 40023cc:	d9003617 	ldw	r4,216(sp)
 40023d0:	000d883a 	mov	r6,zero
 40023d4:	000f883a 	mov	r7,zero
 40023d8:	980b883a 	mov	r5,r19
 40023dc:	d8c03c15 	stw	r3,240(sp)
 40023e0:	da003d15 	stw	r8,244(sp)
 40023e4:	400b9bc0 	call	400b9bc <__eqdf2>
 40023e8:	d8c03c17 	ldw	r3,240(sp)
 40023ec:	da003d17 	ldw	r8,244(sp)
 40023f0:	103f9826 	beq	r2,zero,4002254 <__ram_exceptions_end+0xfbff2024>
 40023f4:	00800044 	movi	r2,1
 40023f8:	10c7c83a 	sub	r3,r2,r3
 40023fc:	d8c02615 	stw	r3,152(sp)
 4002400:	003f9506 	br	4002258 <__ram_exceptions_end+0xfbff2028>
 4002404:	d9002a17 	ldw	r4,168(sp)
 4002408:	d8c03217 	ldw	r3,200(sp)
 400240c:	20800044 	addi	r2,r4,1
 4002410:	1885883a 	add	r2,r3,r2
 4002414:	d8802b15 	stw	r2,172(sp)
 4002418:	103dbf0e 	bge	r2,zero,4001b18 <__ram_exceptions_end+0xfbff18e8>
 400241c:	0005883a 	mov	r2,zero
 4002420:	003dbd06 	br	4001b18 <__ram_exceptions_end+0xfbff18e8>
 4002424:	2000201e 	bne	r4,zero,40024a8 <___vfprintf_internal_r+0x222c>
 4002428:	9480004c 	andi	r18,r18,1
 400242c:	90001e1e 	bne	r18,zero,40024a8 <___vfprintf_internal_r+0x222c>
 4002430:	00800044 	movi	r2,1
 4002434:	d8802b15 	stw	r2,172(sp)
 4002438:	003db706 	br	4001b18 <__ram_exceptions_end+0xfbff18e8>
 400243c:	00800b44 	movi	r2,45
 4002440:	05adc83a 	sub	r22,zero,r22
 4002444:	d8802305 	stb	r2,140(sp)
 4002448:	003f3f06 	br	4002148 <__ram_exceptions_end+0xfbff1f18>
 400244c:	0005883a 	mov	r2,zero
 4002450:	003f5206 	br	400219c <__ram_exceptions_end+0xfbff1f6c>
 4002454:	90a4703a 	and	r18,r18,r2
 4002458:	903f4e26 	beq	r18,zero,4002194 <__ram_exceptions_end+0xfbff1f64>
 400245c:	003f4a06 	br	4002188 <__ram_exceptions_end+0xfbff1f58>
 4002460:	00800084 	movi	r2,2
 4002464:	10c5c83a 	sub	r2,r2,r3
 4002468:	003f8406 	br	400227c <__ram_exceptions_end+0xfbff204c>
 400246c:	d9402e17 	ldw	r5,184(sp)
 4002470:	d9002e17 	ldw	r4,184(sp)
 4002474:	ac400043 	ldbu	r17,1(r21)
 4002478:	29400017 	ldw	r5,0(r5)
 400247c:	20800104 	addi	r2,r4,4
 4002480:	d8802e15 	stw	r2,184(sp)
 4002484:	d9402a15 	stw	r5,168(sp)
 4002488:	182b883a 	mov	r21,r3
 400248c:	283e7b0e 	bge	r5,zero,4001e7c <__ram_exceptions_end+0xfbff1c4c>
 4002490:	8c403fcc 	andi	r17,r17,255
 4002494:	017fffc4 	movi	r5,-1
 4002498:	8c40201c 	xori	r17,r17,128
 400249c:	d9402a15 	stw	r5,168(sp)
 40024a0:	8c7fe004 	addi	r17,r17,-128
 40024a4:	0037d706 	br	4000404 <__ram_exceptions_end+0xfbff01d4>
 40024a8:	d8c02a17 	ldw	r3,168(sp)
 40024ac:	18c00084 	addi	r3,r3,2
 40024b0:	d8c02b15 	stw	r3,172(sp)
 40024b4:	1805883a 	mov	r2,r3
 40024b8:	183d970e 	bge	r3,zero,4001b18 <__ram_exceptions_end+0xfbff18e8>
 40024bc:	003fd706 	br	400241c <__ram_exceptions_end+0xfbff21ec>
 40024c0:	0005883a 	mov	r2,zero
 40024c4:	003f8f06 	br	4002304 <__ram_exceptions_end+0xfbff20d4>
 40024c8:	9080004c 	andi	r2,r18,1
 40024cc:	103f821e 	bne	r2,zero,40022d8 <__ram_exceptions_end+0xfbff20a8>
 40024d0:	d8802117 	ldw	r2,132(sp)
 40024d4:	1405c83a 	sub	r2,r2,r16
 40024d8:	d8803315 	stw	r2,204(sp)
 40024dc:	b47ef426 	beq	r22,r17,40020b0 <__ram_exceptions_end+0xfbff1e80>
 40024e0:	dd802617 	ldw	r22,152(sp)
 40024e4:	003f1206 	br	4002130 <__ram_exceptions_end+0xfbff1f00>
 40024e8:	d8c02b03 	ldbu	r3,172(sp)
 40024ec:	d8c02785 	stb	r3,158(sp)
 40024f0:	0038df06 	br	4000870 <__ram_exceptions_end+0xfbff0640>
 40024f4:	d8c02b03 	ldbu	r3,172(sp)
 40024f8:	d8c02785 	stb	r3,158(sp)
 40024fc:	0038aa06 	br	40007a8 <__ram_exceptions_end+0xfbff0578>
 4002500:	d8c02b03 	ldbu	r3,172(sp)
 4002504:	d8c02785 	stb	r3,158(sp)
 4002508:	003a4306 	br	4000e18 <__ram_exceptions_end+0xfbff0be8>
 400250c:	d8c02b03 	ldbu	r3,172(sp)
 4002510:	d8c02785 	stb	r3,158(sp)
 4002514:	003af506 	br	40010ec <__ram_exceptions_end+0xfbff0ebc>
 4002518:	0005883a 	mov	r2,zero
 400251c:	003d7b06 	br	4001b0c <__ram_exceptions_end+0xfbff18dc>
 4002520:	d8802344 	addi	r2,sp,141
 4002524:	003f1006 	br	4002168 <__ram_exceptions_end+0xfbff1f38>
 4002528:	d8c02b03 	ldbu	r3,172(sp)
 400252c:	d8c02785 	stb	r3,158(sp)
 4002530:	0038fd06 	br	4000928 <__ram_exceptions_end+0xfbff06f8>
 4002534:	d8c02b03 	ldbu	r3,172(sp)
 4002538:	d8c02785 	stb	r3,158(sp)
 400253c:	003a9706 	br	4000f9c <__ram_exceptions_end+0xfbff0d6c>
 4002540:	d8c02b03 	ldbu	r3,172(sp)
 4002544:	d8c02785 	stb	r3,158(sp)
 4002548:	003a1806 	br	4000dac <__ram_exceptions_end+0xfbff0b7c>
 400254c:	d8c02b03 	ldbu	r3,172(sp)
 4002550:	d8c02785 	stb	r3,158(sp)
 4002554:	003abe06 	br	4001050 <__ram_exceptions_end+0xfbff0e20>

04002558 <__vfprintf_internal>:
 4002558:	00810074 	movhi	r2,1025
 400255c:	10851404 	addi	r2,r2,5200
 4002560:	300f883a 	mov	r7,r6
 4002564:	280d883a 	mov	r6,r5
 4002568:	200b883a 	mov	r5,r4
 400256c:	11000017 	ldw	r4,0(r2)
 4002570:	400027c1 	jmpi	400027c <___vfprintf_internal_r>

04002574 <__sbprintf>:
 4002574:	2880030b 	ldhu	r2,12(r5)
 4002578:	2ac01917 	ldw	r11,100(r5)
 400257c:	2a80038b 	ldhu	r10,14(r5)
 4002580:	2a400717 	ldw	r9,28(r5)
 4002584:	2a000917 	ldw	r8,36(r5)
 4002588:	defee204 	addi	sp,sp,-1144
 400258c:	00c10004 	movi	r3,1024
 4002590:	dc011a15 	stw	r16,1128(sp)
 4002594:	10bfff4c 	andi	r2,r2,65533
 4002598:	2821883a 	mov	r16,r5
 400259c:	d8cb883a 	add	r5,sp,r3
 40025a0:	dc811c15 	stw	r18,1136(sp)
 40025a4:	dc411b15 	stw	r17,1132(sp)
 40025a8:	dfc11d15 	stw	ra,1140(sp)
 40025ac:	2025883a 	mov	r18,r4
 40025b0:	d881030d 	sth	r2,1036(sp)
 40025b4:	dac11915 	stw	r11,1124(sp)
 40025b8:	da81038d 	sth	r10,1038(sp)
 40025bc:	da410715 	stw	r9,1052(sp)
 40025c0:	da010915 	stw	r8,1060(sp)
 40025c4:	dec10015 	stw	sp,1024(sp)
 40025c8:	dec10415 	stw	sp,1040(sp)
 40025cc:	d8c10215 	stw	r3,1032(sp)
 40025d0:	d8c10515 	stw	r3,1044(sp)
 40025d4:	d8010615 	stw	zero,1048(sp)
 40025d8:	400027c0 	call	400027c <___vfprintf_internal_r>
 40025dc:	1023883a 	mov	r17,r2
 40025e0:	10000416 	blt	r2,zero,40025f4 <__sbprintf+0x80>
 40025e4:	d9410004 	addi	r5,sp,1024
 40025e8:	9009883a 	mov	r4,r18
 40025ec:	40042500 	call	4004250 <_fflush_r>
 40025f0:	10000d1e 	bne	r2,zero,4002628 <__sbprintf+0xb4>
 40025f4:	d881030b 	ldhu	r2,1036(sp)
 40025f8:	1080100c 	andi	r2,r2,64
 40025fc:	10000326 	beq	r2,zero,400260c <__sbprintf+0x98>
 4002600:	8080030b 	ldhu	r2,12(r16)
 4002604:	10801014 	ori	r2,r2,64
 4002608:	8080030d 	sth	r2,12(r16)
 400260c:	8805883a 	mov	r2,r17
 4002610:	dfc11d17 	ldw	ra,1140(sp)
 4002614:	dc811c17 	ldw	r18,1136(sp)
 4002618:	dc411b17 	ldw	r17,1132(sp)
 400261c:	dc011a17 	ldw	r16,1128(sp)
 4002620:	dec11e04 	addi	sp,sp,1144
 4002624:	f800283a 	ret
 4002628:	047fffc4 	movi	r17,-1
 400262c:	003ff106 	br	40025f4 <__ram_exceptions_end+0xfbff23c4>

04002630 <__swsetup_r>:
 4002630:	00810074 	movhi	r2,1025
 4002634:	defffd04 	addi	sp,sp,-12
 4002638:	10851404 	addi	r2,r2,5200
 400263c:	dc400115 	stw	r17,4(sp)
 4002640:	2023883a 	mov	r17,r4
 4002644:	11000017 	ldw	r4,0(r2)
 4002648:	dc000015 	stw	r16,0(sp)
 400264c:	dfc00215 	stw	ra,8(sp)
 4002650:	2821883a 	mov	r16,r5
 4002654:	20000226 	beq	r4,zero,4002660 <__swsetup_r+0x30>
 4002658:	20800e17 	ldw	r2,56(r4)
 400265c:	10003126 	beq	r2,zero,4002724 <__swsetup_r+0xf4>
 4002660:	8080030b 	ldhu	r2,12(r16)
 4002664:	10c0020c 	andi	r3,r2,8
 4002668:	1009883a 	mov	r4,r2
 400266c:	18000f26 	beq	r3,zero,40026ac <__swsetup_r+0x7c>
 4002670:	80c00417 	ldw	r3,16(r16)
 4002674:	18001526 	beq	r3,zero,40026cc <__swsetup_r+0x9c>
 4002678:	1100004c 	andi	r4,r2,1
 400267c:	20001c1e 	bne	r4,zero,40026f0 <__swsetup_r+0xc0>
 4002680:	1080008c 	andi	r2,r2,2
 4002684:	1000291e 	bne	r2,zero,400272c <__swsetup_r+0xfc>
 4002688:	80800517 	ldw	r2,20(r16)
 400268c:	80800215 	stw	r2,8(r16)
 4002690:	18001c26 	beq	r3,zero,4002704 <__swsetup_r+0xd4>
 4002694:	0005883a 	mov	r2,zero
 4002698:	dfc00217 	ldw	ra,8(sp)
 400269c:	dc400117 	ldw	r17,4(sp)
 40026a0:	dc000017 	ldw	r16,0(sp)
 40026a4:	dec00304 	addi	sp,sp,12
 40026a8:	f800283a 	ret
 40026ac:	2080040c 	andi	r2,r4,16
 40026b0:	10002e26 	beq	r2,zero,400276c <__swsetup_r+0x13c>
 40026b4:	2080010c 	andi	r2,r4,4
 40026b8:	10001e1e 	bne	r2,zero,4002734 <__swsetup_r+0x104>
 40026bc:	80c00417 	ldw	r3,16(r16)
 40026c0:	20800214 	ori	r2,r4,8
 40026c4:	8080030d 	sth	r2,12(r16)
 40026c8:	183feb1e 	bne	r3,zero,4002678 <__ram_exceptions_end+0xfbff2448>
 40026cc:	1100a00c 	andi	r4,r2,640
 40026d0:	01408004 	movi	r5,512
 40026d4:	217fe826 	beq	r4,r5,4002678 <__ram_exceptions_end+0xfbff2448>
 40026d8:	800b883a 	mov	r5,r16
 40026dc:	8809883a 	mov	r4,r17
 40026e0:	40051ec0 	call	40051ec <__smakebuf_r>
 40026e4:	8080030b 	ldhu	r2,12(r16)
 40026e8:	80c00417 	ldw	r3,16(r16)
 40026ec:	003fe206 	br	4002678 <__ram_exceptions_end+0xfbff2448>
 40026f0:	80800517 	ldw	r2,20(r16)
 40026f4:	80000215 	stw	zero,8(r16)
 40026f8:	0085c83a 	sub	r2,zero,r2
 40026fc:	80800615 	stw	r2,24(r16)
 4002700:	183fe41e 	bne	r3,zero,4002694 <__ram_exceptions_end+0xfbff2464>
 4002704:	80c0030b 	ldhu	r3,12(r16)
 4002708:	0005883a 	mov	r2,zero
 400270c:	1900200c 	andi	r4,r3,128
 4002710:	203fe126 	beq	r4,zero,4002698 <__ram_exceptions_end+0xfbff2468>
 4002714:	18c01014 	ori	r3,r3,64
 4002718:	80c0030d 	sth	r3,12(r16)
 400271c:	00bfffc4 	movi	r2,-1
 4002720:	003fdd06 	br	4002698 <__ram_exceptions_end+0xfbff2468>
 4002724:	400463c0 	call	400463c <__sinit>
 4002728:	003fcd06 	br	4002660 <__ram_exceptions_end+0xfbff2430>
 400272c:	0005883a 	mov	r2,zero
 4002730:	003fd606 	br	400268c <__ram_exceptions_end+0xfbff245c>
 4002734:	81400c17 	ldw	r5,48(r16)
 4002738:	28000626 	beq	r5,zero,4002754 <__swsetup_r+0x124>
 400273c:	80801004 	addi	r2,r16,64
 4002740:	28800326 	beq	r5,r2,4002750 <__swsetup_r+0x120>
 4002744:	8809883a 	mov	r4,r17
 4002748:	40047b00 	call	40047b0 <_free_r>
 400274c:	8100030b 	ldhu	r4,12(r16)
 4002750:	80000c15 	stw	zero,48(r16)
 4002754:	80c00417 	ldw	r3,16(r16)
 4002758:	00bff6c4 	movi	r2,-37
 400275c:	1108703a 	and	r4,r2,r4
 4002760:	80000115 	stw	zero,4(r16)
 4002764:	80c00015 	stw	r3,0(r16)
 4002768:	003fd506 	br	40026c0 <__ram_exceptions_end+0xfbff2490>
 400276c:	00800244 	movi	r2,9
 4002770:	88800015 	stw	r2,0(r17)
 4002774:	20801014 	ori	r2,r4,64
 4002778:	8080030d 	sth	r2,12(r16)
 400277c:	00bfffc4 	movi	r2,-1
 4002780:	003fc506 	br	4002698 <__ram_exceptions_end+0xfbff2468>

04002784 <quorem>:
 4002784:	defff204 	addi	sp,sp,-56
 4002788:	ddc00b15 	stw	r23,44(sp)
 400278c:	20800417 	ldw	r2,16(r4)
 4002790:	2dc00417 	ldw	r23,16(r5)
 4002794:	dfc00d15 	stw	ra,52(sp)
 4002798:	df000c15 	stw	fp,48(sp)
 400279c:	dd800a15 	stw	r22,40(sp)
 40027a0:	dd400915 	stw	r21,36(sp)
 40027a4:	dd000815 	stw	r20,32(sp)
 40027a8:	dcc00715 	stw	r19,28(sp)
 40027ac:	dc800615 	stw	r18,24(sp)
 40027b0:	dc400515 	stw	r17,20(sp)
 40027b4:	dc000415 	stw	r16,16(sp)
 40027b8:	15c07a16 	blt	r2,r23,40029a4 <quorem+0x220>
 40027bc:	bdffffc4 	addi	r23,r23,-1
 40027c0:	bde9883a 	add	r20,r23,r23
 40027c4:	28c00504 	addi	r3,r5,20
 40027c8:	a529883a 	add	r20,r20,r20
 40027cc:	1d39883a 	add	fp,r3,r20
 40027d0:	24c00504 	addi	r19,r4,20
 40027d4:	d9400215 	stw	r5,8(sp)
 40027d8:	9d29883a 	add	r20,r19,r20
 40027dc:	e1400017 	ldw	r5,0(fp)
 40027e0:	d9000015 	stw	r4,0(sp)
 40027e4:	a1000017 	ldw	r4,0(r20)
 40027e8:	29400044 	addi	r5,r5,1
 40027ec:	d8c00115 	stw	r3,4(sp)
 40027f0:	dd000315 	stw	r20,12(sp)
 40027f4:	400a65c0 	call	400a65c <__udivsi3>
 40027f8:	1025883a 	mov	r18,r2
 40027fc:	10003026 	beq	r2,zero,40028c0 <quorem+0x13c>
 4002800:	dc400117 	ldw	r17,4(sp)
 4002804:	9829883a 	mov	r20,r19
 4002808:	002d883a 	mov	r22,zero
 400280c:	0021883a 	mov	r16,zero
 4002810:	8d400017 	ldw	r21,0(r17)
 4002814:	900b883a 	mov	r5,r18
 4002818:	8c400104 	addi	r17,r17,4
 400281c:	a93fffcc 	andi	r4,r21,65535
 4002820:	400a7180 	call	400a718 <__mulsi3>
 4002824:	a808d43a 	srli	r4,r21,16
 4002828:	900b883a 	mov	r5,r18
 400282c:	15ad883a 	add	r22,r2,r22
 4002830:	400a7180 	call	400a718 <__mulsi3>
 4002834:	a1000017 	ldw	r4,0(r20)
 4002838:	b00cd43a 	srli	r6,r22,16
 400283c:	b0ffffcc 	andi	r3,r22,65535
 4002840:	217fffcc 	andi	r5,r4,65535
 4002844:	2c21883a 	add	r16,r5,r16
 4002848:	80c7c83a 	sub	r3,r16,r3
 400284c:	2008d43a 	srli	r4,r4,16
 4002850:	1185883a 	add	r2,r2,r6
 4002854:	1821d43a 	srai	r16,r3,16
 4002858:	117fffcc 	andi	r5,r2,65535
 400285c:	2149c83a 	sub	r4,r4,r5
 4002860:	2421883a 	add	r16,r4,r16
 4002864:	8008943a 	slli	r4,r16,16
 4002868:	18ffffcc 	andi	r3,r3,65535
 400286c:	102cd43a 	srli	r22,r2,16
 4002870:	20c8b03a 	or	r4,r4,r3
 4002874:	a1000015 	stw	r4,0(r20)
 4002878:	8021d43a 	srai	r16,r16,16
 400287c:	a5000104 	addi	r20,r20,4
 4002880:	e47fe32e 	bgeu	fp,r17,4002810 <__ram_exceptions_end+0xfbff25e0>
 4002884:	d8c00317 	ldw	r3,12(sp)
 4002888:	18800017 	ldw	r2,0(r3)
 400288c:	10000c1e 	bne	r2,zero,40028c0 <quorem+0x13c>
 4002890:	18bfff04 	addi	r2,r3,-4
 4002894:	9880082e 	bgeu	r19,r2,40028b8 <quorem+0x134>
 4002898:	18ffff17 	ldw	r3,-4(r3)
 400289c:	18000326 	beq	r3,zero,40028ac <quorem+0x128>
 40028a0:	00000506 	br	40028b8 <quorem+0x134>
 40028a4:	10c00017 	ldw	r3,0(r2)
 40028a8:	1800031e 	bne	r3,zero,40028b8 <quorem+0x134>
 40028ac:	10bfff04 	addi	r2,r2,-4
 40028b0:	bdffffc4 	addi	r23,r23,-1
 40028b4:	98bffb36 	bltu	r19,r2,40028a4 <__ram_exceptions_end+0xfbff2674>
 40028b8:	d8c00017 	ldw	r3,0(sp)
 40028bc:	1dc00415 	stw	r23,16(r3)
 40028c0:	d9400217 	ldw	r5,8(sp)
 40028c4:	d9000017 	ldw	r4,0(sp)
 40028c8:	40069e80 	call	40069e8 <__mcmp>
 40028cc:	10002816 	blt	r2,zero,4002970 <quorem+0x1ec>
 40028d0:	dc400117 	ldw	r17,4(sp)
 40028d4:	94800044 	addi	r18,r18,1
 40028d8:	980d883a 	mov	r6,r19
 40028dc:	0007883a 	mov	r3,zero
 40028e0:	31000017 	ldw	r4,0(r6)
 40028e4:	89400017 	ldw	r5,0(r17)
 40028e8:	31800104 	addi	r6,r6,4
 40028ec:	20bfffcc 	andi	r2,r4,65535
 40028f0:	10c7883a 	add	r3,r2,r3
 40028f4:	28bfffcc 	andi	r2,r5,65535
 40028f8:	1885c83a 	sub	r2,r3,r2
 40028fc:	280ad43a 	srli	r5,r5,16
 4002900:	2008d43a 	srli	r4,r4,16
 4002904:	1007d43a 	srai	r3,r2,16
 4002908:	10bfffcc 	andi	r2,r2,65535
 400290c:	2149c83a 	sub	r4,r4,r5
 4002910:	20c9883a 	add	r4,r4,r3
 4002914:	200a943a 	slli	r5,r4,16
 4002918:	8c400104 	addi	r17,r17,4
 400291c:	2007d43a 	srai	r3,r4,16
 4002920:	2884b03a 	or	r2,r5,r2
 4002924:	30bfff15 	stw	r2,-4(r6)
 4002928:	e47fed2e 	bgeu	fp,r17,40028e0 <__ram_exceptions_end+0xfbff26b0>
 400292c:	bdc5883a 	add	r2,r23,r23
 4002930:	1085883a 	add	r2,r2,r2
 4002934:	9887883a 	add	r3,r19,r2
 4002938:	18800017 	ldw	r2,0(r3)
 400293c:	10000c1e 	bne	r2,zero,4002970 <quorem+0x1ec>
 4002940:	18bfff04 	addi	r2,r3,-4
 4002944:	9880082e 	bgeu	r19,r2,4002968 <quorem+0x1e4>
 4002948:	18ffff17 	ldw	r3,-4(r3)
 400294c:	18000326 	beq	r3,zero,400295c <quorem+0x1d8>
 4002950:	00000506 	br	4002968 <quorem+0x1e4>
 4002954:	10c00017 	ldw	r3,0(r2)
 4002958:	1800031e 	bne	r3,zero,4002968 <quorem+0x1e4>
 400295c:	10bfff04 	addi	r2,r2,-4
 4002960:	bdffffc4 	addi	r23,r23,-1
 4002964:	98bffb36 	bltu	r19,r2,4002954 <__ram_exceptions_end+0xfbff2724>
 4002968:	d8c00017 	ldw	r3,0(sp)
 400296c:	1dc00415 	stw	r23,16(r3)
 4002970:	9005883a 	mov	r2,r18
 4002974:	dfc00d17 	ldw	ra,52(sp)
 4002978:	df000c17 	ldw	fp,48(sp)
 400297c:	ddc00b17 	ldw	r23,44(sp)
 4002980:	dd800a17 	ldw	r22,40(sp)
 4002984:	dd400917 	ldw	r21,36(sp)
 4002988:	dd000817 	ldw	r20,32(sp)
 400298c:	dcc00717 	ldw	r19,28(sp)
 4002990:	dc800617 	ldw	r18,24(sp)
 4002994:	dc400517 	ldw	r17,20(sp)
 4002998:	dc000417 	ldw	r16,16(sp)
 400299c:	dec00e04 	addi	sp,sp,56
 40029a0:	f800283a 	ret
 40029a4:	0005883a 	mov	r2,zero
 40029a8:	003ff206 	br	4002974 <__ram_exceptions_end+0xfbff2744>

040029ac <_dtoa_r>:
 40029ac:	20801017 	ldw	r2,64(r4)
 40029b0:	deffde04 	addi	sp,sp,-136
 40029b4:	df002015 	stw	fp,128(sp)
 40029b8:	dcc01b15 	stw	r19,108(sp)
 40029bc:	dc801a15 	stw	r18,104(sp)
 40029c0:	dc401915 	stw	r17,100(sp)
 40029c4:	dc001815 	stw	r16,96(sp)
 40029c8:	dfc02115 	stw	ra,132(sp)
 40029cc:	ddc01f15 	stw	r23,124(sp)
 40029d0:	dd801e15 	stw	r22,120(sp)
 40029d4:	dd401d15 	stw	r21,116(sp)
 40029d8:	dd001c15 	stw	r20,112(sp)
 40029dc:	d9c00315 	stw	r7,12(sp)
 40029e0:	2039883a 	mov	fp,r4
 40029e4:	3023883a 	mov	r17,r6
 40029e8:	2825883a 	mov	r18,r5
 40029ec:	dc002417 	ldw	r16,144(sp)
 40029f0:	3027883a 	mov	r19,r6
 40029f4:	10000826 	beq	r2,zero,4002a18 <_dtoa_r+0x6c>
 40029f8:	21801117 	ldw	r6,68(r4)
 40029fc:	00c00044 	movi	r3,1
 4002a00:	100b883a 	mov	r5,r2
 4002a04:	1986983a 	sll	r3,r3,r6
 4002a08:	11800115 	stw	r6,4(r2)
 4002a0c:	10c00215 	stw	r3,8(r2)
 4002a10:	400610c0 	call	400610c <_Bfree>
 4002a14:	e0001015 	stw	zero,64(fp)
 4002a18:	88002e16 	blt	r17,zero,4002ad4 <_dtoa_r+0x128>
 4002a1c:	80000015 	stw	zero,0(r16)
 4002a20:	889ffc2c 	andhi	r2,r17,32752
 4002a24:	00dffc34 	movhi	r3,32752
 4002a28:	10c01c26 	beq	r2,r3,4002a9c <_dtoa_r+0xf0>
 4002a2c:	000d883a 	mov	r6,zero
 4002a30:	000f883a 	mov	r7,zero
 4002a34:	9009883a 	mov	r4,r18
 4002a38:	980b883a 	mov	r5,r19
 4002a3c:	400b9bc0 	call	400b9bc <__eqdf2>
 4002a40:	10002b1e 	bne	r2,zero,4002af0 <_dtoa_r+0x144>
 4002a44:	d9c02317 	ldw	r7,140(sp)
 4002a48:	00800044 	movi	r2,1
 4002a4c:	38800015 	stw	r2,0(r7)
 4002a50:	d8802517 	ldw	r2,148(sp)
 4002a54:	10019e26 	beq	r2,zero,40030d0 <_dtoa_r+0x724>
 4002a58:	d8c02517 	ldw	r3,148(sp)
 4002a5c:	00810074 	movhi	r2,1025
 4002a60:	10bdba44 	addi	r2,r2,-2327
 4002a64:	18800015 	stw	r2,0(r3)
 4002a68:	10bfffc4 	addi	r2,r2,-1
 4002a6c:	dfc02117 	ldw	ra,132(sp)
 4002a70:	df002017 	ldw	fp,128(sp)
 4002a74:	ddc01f17 	ldw	r23,124(sp)
 4002a78:	dd801e17 	ldw	r22,120(sp)
 4002a7c:	dd401d17 	ldw	r21,116(sp)
 4002a80:	dd001c17 	ldw	r20,112(sp)
 4002a84:	dcc01b17 	ldw	r19,108(sp)
 4002a88:	dc801a17 	ldw	r18,104(sp)
 4002a8c:	dc401917 	ldw	r17,100(sp)
 4002a90:	dc001817 	ldw	r16,96(sp)
 4002a94:	dec02204 	addi	sp,sp,136
 4002a98:	f800283a 	ret
 4002a9c:	d8c02317 	ldw	r3,140(sp)
 4002aa0:	0089c3c4 	movi	r2,9999
 4002aa4:	18800015 	stw	r2,0(r3)
 4002aa8:	90017726 	beq	r18,zero,4003088 <_dtoa_r+0x6dc>
 4002aac:	00810074 	movhi	r2,1025
 4002ab0:	10bdc604 	addi	r2,r2,-2280
 4002ab4:	d9002517 	ldw	r4,148(sp)
 4002ab8:	203fec26 	beq	r4,zero,4002a6c <__ram_exceptions_end+0xfbff283c>
 4002abc:	10c000c7 	ldb	r3,3(r2)
 4002ac0:	1801781e 	bne	r3,zero,40030a4 <_dtoa_r+0x6f8>
 4002ac4:	10c000c4 	addi	r3,r2,3
 4002ac8:	d9802517 	ldw	r6,148(sp)
 4002acc:	30c00015 	stw	r3,0(r6)
 4002ad0:	003fe606 	br	4002a6c <__ram_exceptions_end+0xfbff283c>
 4002ad4:	04e00034 	movhi	r19,32768
 4002ad8:	9cffffc4 	addi	r19,r19,-1
 4002adc:	00800044 	movi	r2,1
 4002ae0:	8ce6703a 	and	r19,r17,r19
 4002ae4:	80800015 	stw	r2,0(r16)
 4002ae8:	9823883a 	mov	r17,r19
 4002aec:	003fcc06 	br	4002a20 <__ram_exceptions_end+0xfbff27f0>
 4002af0:	d8800204 	addi	r2,sp,8
 4002af4:	d8800015 	stw	r2,0(sp)
 4002af8:	d9c00104 	addi	r7,sp,4
 4002afc:	900b883a 	mov	r5,r18
 4002b00:	980d883a 	mov	r6,r19
 4002b04:	e009883a 	mov	r4,fp
 4002b08:	8820d53a 	srli	r16,r17,20
 4002b0c:	4006db40 	call	4006db4 <__d2b>
 4002b10:	d8800915 	stw	r2,36(sp)
 4002b14:	8001651e 	bne	r16,zero,40030ac <_dtoa_r+0x700>
 4002b18:	dd800217 	ldw	r22,8(sp)
 4002b1c:	dc000117 	ldw	r16,4(sp)
 4002b20:	00800804 	movi	r2,32
 4002b24:	b421883a 	add	r16,r22,r16
 4002b28:	80c10c84 	addi	r3,r16,1074
 4002b2c:	10c2d10e 	bge	r2,r3,4003674 <_dtoa_r+0xcc8>
 4002b30:	00801004 	movi	r2,64
 4002b34:	81010484 	addi	r4,r16,1042
 4002b38:	10c7c83a 	sub	r3,r2,r3
 4002b3c:	9108d83a 	srl	r4,r18,r4
 4002b40:	88e2983a 	sll	r17,r17,r3
 4002b44:	2448b03a 	or	r4,r4,r17
 4002b48:	400ced80 	call	400ced8 <__floatunsidf>
 4002b4c:	017f8434 	movhi	r5,65040
 4002b50:	01800044 	movi	r6,1
 4002b54:	1009883a 	mov	r4,r2
 4002b58:	194b883a 	add	r5,r3,r5
 4002b5c:	843fffc4 	addi	r16,r16,-1
 4002b60:	d9801115 	stw	r6,68(sp)
 4002b64:	000d883a 	mov	r6,zero
 4002b68:	01cffe34 	movhi	r7,16376
 4002b6c:	400c4800 	call	400c480 <__subdf3>
 4002b70:	0198dbf4 	movhi	r6,25455
 4002b74:	01cff4f4 	movhi	r7,16339
 4002b78:	3190d844 	addi	r6,r6,17249
 4002b7c:	39e1e9c4 	addi	r7,r7,-30809
 4002b80:	1009883a 	mov	r4,r2
 4002b84:	180b883a 	mov	r5,r3
 4002b88:	400bc140 	call	400bc14 <__muldf3>
 4002b8c:	01a2d874 	movhi	r6,35681
 4002b90:	01cff1f4 	movhi	r7,16327
 4002b94:	31b22cc4 	addi	r6,r6,-14157
 4002b98:	39e28a04 	addi	r7,r7,-30168
 4002b9c:	180b883a 	mov	r5,r3
 4002ba0:	1009883a 	mov	r4,r2
 4002ba4:	400a7400 	call	400a740 <__adddf3>
 4002ba8:	8009883a 	mov	r4,r16
 4002bac:	1029883a 	mov	r20,r2
 4002bb0:	1823883a 	mov	r17,r3
 4002bb4:	400cdfc0 	call	400cdfc <__floatsidf>
 4002bb8:	019427f4 	movhi	r6,20639
 4002bbc:	01cff4f4 	movhi	r7,16339
 4002bc0:	319e7ec4 	addi	r6,r6,31227
 4002bc4:	39d104c4 	addi	r7,r7,17427
 4002bc8:	1009883a 	mov	r4,r2
 4002bcc:	180b883a 	mov	r5,r3
 4002bd0:	400bc140 	call	400bc14 <__muldf3>
 4002bd4:	100d883a 	mov	r6,r2
 4002bd8:	180f883a 	mov	r7,r3
 4002bdc:	a009883a 	mov	r4,r20
 4002be0:	880b883a 	mov	r5,r17
 4002be4:	400a7400 	call	400a740 <__adddf3>
 4002be8:	1009883a 	mov	r4,r2
 4002bec:	180b883a 	mov	r5,r3
 4002bf0:	1029883a 	mov	r20,r2
 4002bf4:	1823883a 	mov	r17,r3
 4002bf8:	400cd7c0 	call	400cd7c <__fixdfsi>
 4002bfc:	000d883a 	mov	r6,zero
 4002c00:	000f883a 	mov	r7,zero
 4002c04:	a009883a 	mov	r4,r20
 4002c08:	880b883a 	mov	r5,r17
 4002c0c:	d8800515 	stw	r2,20(sp)
 4002c10:	400bb200 	call	400bb20 <__ledf2>
 4002c14:	10028716 	blt	r2,zero,4003634 <_dtoa_r+0xc88>
 4002c18:	d8c00517 	ldw	r3,20(sp)
 4002c1c:	00800584 	movi	r2,22
 4002c20:	10c27536 	bltu	r2,r3,40035f8 <_dtoa_r+0xc4c>
 4002c24:	180490fa 	slli	r2,r3,3
 4002c28:	00c10074 	movhi	r3,1025
 4002c2c:	18fde204 	addi	r3,r3,-2168
 4002c30:	1885883a 	add	r2,r3,r2
 4002c34:	11000017 	ldw	r4,0(r2)
 4002c38:	11400117 	ldw	r5,4(r2)
 4002c3c:	900d883a 	mov	r6,r18
 4002c40:	980f883a 	mov	r7,r19
 4002c44:	400ba440 	call	400ba44 <__gedf2>
 4002c48:	00828d0e 	bge	zero,r2,4003680 <_dtoa_r+0xcd4>
 4002c4c:	d9000517 	ldw	r4,20(sp)
 4002c50:	d8000e15 	stw	zero,56(sp)
 4002c54:	213fffc4 	addi	r4,r4,-1
 4002c58:	d9000515 	stw	r4,20(sp)
 4002c5c:	b42dc83a 	sub	r22,r22,r16
 4002c60:	b5bfffc4 	addi	r22,r22,-1
 4002c64:	b0026f16 	blt	r22,zero,4003624 <_dtoa_r+0xc78>
 4002c68:	d8000815 	stw	zero,32(sp)
 4002c6c:	d9c00517 	ldw	r7,20(sp)
 4002c70:	38026416 	blt	r7,zero,4003604 <_dtoa_r+0xc58>
 4002c74:	b1ed883a 	add	r22,r22,r7
 4002c78:	d9c00d15 	stw	r7,52(sp)
 4002c7c:	d8000a15 	stw	zero,40(sp)
 4002c80:	d9800317 	ldw	r6,12(sp)
 4002c84:	00800244 	movi	r2,9
 4002c88:	11811436 	bltu	r2,r6,40030dc <_dtoa_r+0x730>
 4002c8c:	00800144 	movi	r2,5
 4002c90:	1184e10e 	bge	r2,r6,4004018 <_dtoa_r+0x166c>
 4002c94:	31bfff04 	addi	r6,r6,-4
 4002c98:	d9800315 	stw	r6,12(sp)
 4002c9c:	0023883a 	mov	r17,zero
 4002ca0:	d9800317 	ldw	r6,12(sp)
 4002ca4:	008000c4 	movi	r2,3
 4002ca8:	30836726 	beq	r6,r2,4003a48 <_dtoa_r+0x109c>
 4002cac:	1183410e 	bge	r2,r6,40039b4 <_dtoa_r+0x1008>
 4002cb0:	d9c00317 	ldw	r7,12(sp)
 4002cb4:	00800104 	movi	r2,4
 4002cb8:	38827c26 	beq	r7,r2,40036ac <_dtoa_r+0xd00>
 4002cbc:	00800144 	movi	r2,5
 4002cc0:	3884c41e 	bne	r7,r2,4003fd4 <_dtoa_r+0x1628>
 4002cc4:	00800044 	movi	r2,1
 4002cc8:	d8800b15 	stw	r2,44(sp)
 4002ccc:	d8c00517 	ldw	r3,20(sp)
 4002cd0:	d9002217 	ldw	r4,136(sp)
 4002cd4:	1907883a 	add	r3,r3,r4
 4002cd8:	19800044 	addi	r6,r3,1
 4002cdc:	d8c00c15 	stw	r3,48(sp)
 4002ce0:	d9800615 	stw	r6,24(sp)
 4002ce4:	0183a40e 	bge	zero,r6,4003b78 <_dtoa_r+0x11cc>
 4002ce8:	d9800617 	ldw	r6,24(sp)
 4002cec:	3021883a 	mov	r16,r6
 4002cf0:	e0001115 	stw	zero,68(fp)
 4002cf4:	008005c4 	movi	r2,23
 4002cf8:	1184c92e 	bgeu	r2,r6,4004020 <_dtoa_r+0x1674>
 4002cfc:	00c00044 	movi	r3,1
 4002d00:	00800104 	movi	r2,4
 4002d04:	1085883a 	add	r2,r2,r2
 4002d08:	11000504 	addi	r4,r2,20
 4002d0c:	180b883a 	mov	r5,r3
 4002d10:	18c00044 	addi	r3,r3,1
 4002d14:	313ffb2e 	bgeu	r6,r4,4002d04 <__ram_exceptions_end+0xfbff2ad4>
 4002d18:	e1401115 	stw	r5,68(fp)
 4002d1c:	e009883a 	mov	r4,fp
 4002d20:	40060640 	call	4006064 <_Balloc>
 4002d24:	d8800715 	stw	r2,28(sp)
 4002d28:	e0801015 	stw	r2,64(fp)
 4002d2c:	00800384 	movi	r2,14
 4002d30:	1400f736 	bltu	r2,r16,4003110 <_dtoa_r+0x764>
 4002d34:	8800f626 	beq	r17,zero,4003110 <_dtoa_r+0x764>
 4002d38:	d9c00517 	ldw	r7,20(sp)
 4002d3c:	01c39a0e 	bge	zero,r7,4003ba8 <_dtoa_r+0x11fc>
 4002d40:	388003cc 	andi	r2,r7,15
 4002d44:	100490fa 	slli	r2,r2,3
 4002d48:	382bd13a 	srai	r21,r7,4
 4002d4c:	00c10074 	movhi	r3,1025
 4002d50:	18fde204 	addi	r3,r3,-2168
 4002d54:	1885883a 	add	r2,r3,r2
 4002d58:	a8c0040c 	andi	r3,r21,16
 4002d5c:	12400017 	ldw	r9,0(r2)
 4002d60:	12000117 	ldw	r8,4(r2)
 4002d64:	18037926 	beq	r3,zero,4003b4c <_dtoa_r+0x11a0>
 4002d68:	00810074 	movhi	r2,1025
 4002d6c:	10bdd804 	addi	r2,r2,-2208
 4002d70:	11800817 	ldw	r6,32(r2)
 4002d74:	11c00917 	ldw	r7,36(r2)
 4002d78:	9009883a 	mov	r4,r18
 4002d7c:	980b883a 	mov	r5,r19
 4002d80:	da001715 	stw	r8,92(sp)
 4002d84:	da401615 	stw	r9,88(sp)
 4002d88:	400afec0 	call	400afec <__divdf3>
 4002d8c:	da001717 	ldw	r8,92(sp)
 4002d90:	da401617 	ldw	r9,88(sp)
 4002d94:	ad4003cc 	andi	r21,r21,15
 4002d98:	040000c4 	movi	r16,3
 4002d9c:	1023883a 	mov	r17,r2
 4002da0:	1829883a 	mov	r20,r3
 4002da4:	a8001126 	beq	r21,zero,4002dec <_dtoa_r+0x440>
 4002da8:	05c10074 	movhi	r23,1025
 4002dac:	bdfdd804 	addi	r23,r23,-2208
 4002db0:	4805883a 	mov	r2,r9
 4002db4:	4007883a 	mov	r3,r8
 4002db8:	a980004c 	andi	r6,r21,1
 4002dbc:	1009883a 	mov	r4,r2
 4002dc0:	a82bd07a 	srai	r21,r21,1
 4002dc4:	180b883a 	mov	r5,r3
 4002dc8:	30000426 	beq	r6,zero,4002ddc <_dtoa_r+0x430>
 4002dcc:	b9800017 	ldw	r6,0(r23)
 4002dd0:	b9c00117 	ldw	r7,4(r23)
 4002dd4:	84000044 	addi	r16,r16,1
 4002dd8:	400bc140 	call	400bc14 <__muldf3>
 4002ddc:	bdc00204 	addi	r23,r23,8
 4002de0:	a83ff51e 	bne	r21,zero,4002db8 <__ram_exceptions_end+0xfbff2b88>
 4002de4:	1013883a 	mov	r9,r2
 4002de8:	1811883a 	mov	r8,r3
 4002dec:	480d883a 	mov	r6,r9
 4002df0:	400f883a 	mov	r7,r8
 4002df4:	8809883a 	mov	r4,r17
 4002df8:	a00b883a 	mov	r5,r20
 4002dfc:	400afec0 	call	400afec <__divdf3>
 4002e00:	d8800f15 	stw	r2,60(sp)
 4002e04:	d8c01015 	stw	r3,64(sp)
 4002e08:	d8c00e17 	ldw	r3,56(sp)
 4002e0c:	18000626 	beq	r3,zero,4002e28 <_dtoa_r+0x47c>
 4002e10:	d9000f17 	ldw	r4,60(sp)
 4002e14:	d9401017 	ldw	r5,64(sp)
 4002e18:	000d883a 	mov	r6,zero
 4002e1c:	01cffc34 	movhi	r7,16368
 4002e20:	400bb200 	call	400bb20 <__ledf2>
 4002e24:	10040b16 	blt	r2,zero,4003e54 <_dtoa_r+0x14a8>
 4002e28:	8009883a 	mov	r4,r16
 4002e2c:	400cdfc0 	call	400cdfc <__floatsidf>
 4002e30:	d9800f17 	ldw	r6,60(sp)
 4002e34:	d9c01017 	ldw	r7,64(sp)
 4002e38:	1009883a 	mov	r4,r2
 4002e3c:	180b883a 	mov	r5,r3
 4002e40:	400bc140 	call	400bc14 <__muldf3>
 4002e44:	000d883a 	mov	r6,zero
 4002e48:	01d00734 	movhi	r7,16412
 4002e4c:	1009883a 	mov	r4,r2
 4002e50:	180b883a 	mov	r5,r3
 4002e54:	400a7400 	call	400a740 <__adddf3>
 4002e58:	1021883a 	mov	r16,r2
 4002e5c:	d8800617 	ldw	r2,24(sp)
 4002e60:	047f3034 	movhi	r17,64704
 4002e64:	1c63883a 	add	r17,r3,r17
 4002e68:	10031826 	beq	r2,zero,4003acc <_dtoa_r+0x1120>
 4002e6c:	d8c00517 	ldw	r3,20(sp)
 4002e70:	db000617 	ldw	r12,24(sp)
 4002e74:	d8c01315 	stw	r3,76(sp)
 4002e78:	d9000b17 	ldw	r4,44(sp)
 4002e7c:	20038f26 	beq	r4,zero,4003cbc <_dtoa_r+0x1310>
 4002e80:	60bfffc4 	addi	r2,r12,-1
 4002e84:	100490fa 	slli	r2,r2,3
 4002e88:	00c10074 	movhi	r3,1025
 4002e8c:	18fde204 	addi	r3,r3,-2168
 4002e90:	1885883a 	add	r2,r3,r2
 4002e94:	11800017 	ldw	r6,0(r2)
 4002e98:	11c00117 	ldw	r7,4(r2)
 4002e9c:	d8800717 	ldw	r2,28(sp)
 4002ea0:	0009883a 	mov	r4,zero
 4002ea4:	014ff834 	movhi	r5,16352
 4002ea8:	db001615 	stw	r12,88(sp)
 4002eac:	15c00044 	addi	r23,r2,1
 4002eb0:	400afec0 	call	400afec <__divdf3>
 4002eb4:	800d883a 	mov	r6,r16
 4002eb8:	880f883a 	mov	r7,r17
 4002ebc:	1009883a 	mov	r4,r2
 4002ec0:	180b883a 	mov	r5,r3
 4002ec4:	400c4800 	call	400c480 <__subdf3>
 4002ec8:	d9401017 	ldw	r5,64(sp)
 4002ecc:	d9000f17 	ldw	r4,60(sp)
 4002ed0:	102b883a 	mov	r21,r2
 4002ed4:	d8c01215 	stw	r3,72(sp)
 4002ed8:	400cd7c0 	call	400cd7c <__fixdfsi>
 4002edc:	1009883a 	mov	r4,r2
 4002ee0:	1029883a 	mov	r20,r2
 4002ee4:	400cdfc0 	call	400cdfc <__floatsidf>
 4002ee8:	d9000f17 	ldw	r4,60(sp)
 4002eec:	d9401017 	ldw	r5,64(sp)
 4002ef0:	100d883a 	mov	r6,r2
 4002ef4:	180f883a 	mov	r7,r3
 4002ef8:	400c4800 	call	400c480 <__subdf3>
 4002efc:	1823883a 	mov	r17,r3
 4002f00:	d8c00717 	ldw	r3,28(sp)
 4002f04:	d9401217 	ldw	r5,72(sp)
 4002f08:	a2000c04 	addi	r8,r20,48
 4002f0c:	1021883a 	mov	r16,r2
 4002f10:	1a000005 	stb	r8,0(r3)
 4002f14:	800d883a 	mov	r6,r16
 4002f18:	880f883a 	mov	r7,r17
 4002f1c:	a809883a 	mov	r4,r21
 4002f20:	4029883a 	mov	r20,r8
 4002f24:	400ba440 	call	400ba44 <__gedf2>
 4002f28:	00841d16 	blt	zero,r2,4003fa0 <_dtoa_r+0x15f4>
 4002f2c:	800d883a 	mov	r6,r16
 4002f30:	880f883a 	mov	r7,r17
 4002f34:	0009883a 	mov	r4,zero
 4002f38:	014ffc34 	movhi	r5,16368
 4002f3c:	400c4800 	call	400c480 <__subdf3>
 4002f40:	d9401217 	ldw	r5,72(sp)
 4002f44:	100d883a 	mov	r6,r2
 4002f48:	180f883a 	mov	r7,r3
 4002f4c:	a809883a 	mov	r4,r21
 4002f50:	400ba440 	call	400ba44 <__gedf2>
 4002f54:	db001617 	ldw	r12,88(sp)
 4002f58:	00840e16 	blt	zero,r2,4003f94 <_dtoa_r+0x15e8>
 4002f5c:	00800044 	movi	r2,1
 4002f60:	13006b0e 	bge	r2,r12,4003110 <_dtoa_r+0x764>
 4002f64:	d9000717 	ldw	r4,28(sp)
 4002f68:	dd800f15 	stw	r22,60(sp)
 4002f6c:	dcc01015 	stw	r19,64(sp)
 4002f70:	2319883a 	add	r12,r4,r12
 4002f74:	dcc01217 	ldw	r19,72(sp)
 4002f78:	602d883a 	mov	r22,r12
 4002f7c:	dc801215 	stw	r18,72(sp)
 4002f80:	b825883a 	mov	r18,r23
 4002f84:	00000906 	br	4002fac <_dtoa_r+0x600>
 4002f88:	400c4800 	call	400c480 <__subdf3>
 4002f8c:	a80d883a 	mov	r6,r21
 4002f90:	980f883a 	mov	r7,r19
 4002f94:	1009883a 	mov	r4,r2
 4002f98:	180b883a 	mov	r5,r3
 4002f9c:	400bb200 	call	400bb20 <__ledf2>
 4002fa0:	1003e816 	blt	r2,zero,4003f44 <_dtoa_r+0x1598>
 4002fa4:	b825883a 	mov	r18,r23
 4002fa8:	bd83e926 	beq	r23,r22,4003f50 <_dtoa_r+0x15a4>
 4002fac:	a809883a 	mov	r4,r21
 4002fb0:	980b883a 	mov	r5,r19
 4002fb4:	000d883a 	mov	r6,zero
 4002fb8:	01d00934 	movhi	r7,16420
 4002fbc:	400bc140 	call	400bc14 <__muldf3>
 4002fc0:	000d883a 	mov	r6,zero
 4002fc4:	01d00934 	movhi	r7,16420
 4002fc8:	8009883a 	mov	r4,r16
 4002fcc:	880b883a 	mov	r5,r17
 4002fd0:	102b883a 	mov	r21,r2
 4002fd4:	1827883a 	mov	r19,r3
 4002fd8:	400bc140 	call	400bc14 <__muldf3>
 4002fdc:	180b883a 	mov	r5,r3
 4002fe0:	1009883a 	mov	r4,r2
 4002fe4:	1821883a 	mov	r16,r3
 4002fe8:	1023883a 	mov	r17,r2
 4002fec:	400cd7c0 	call	400cd7c <__fixdfsi>
 4002ff0:	1009883a 	mov	r4,r2
 4002ff4:	1029883a 	mov	r20,r2
 4002ff8:	400cdfc0 	call	400cdfc <__floatsidf>
 4002ffc:	8809883a 	mov	r4,r17
 4003000:	800b883a 	mov	r5,r16
 4003004:	100d883a 	mov	r6,r2
 4003008:	180f883a 	mov	r7,r3
 400300c:	400c4800 	call	400c480 <__subdf3>
 4003010:	a5000c04 	addi	r20,r20,48
 4003014:	a80d883a 	mov	r6,r21
 4003018:	980f883a 	mov	r7,r19
 400301c:	1009883a 	mov	r4,r2
 4003020:	180b883a 	mov	r5,r3
 4003024:	95000005 	stb	r20,0(r18)
 4003028:	1021883a 	mov	r16,r2
 400302c:	1823883a 	mov	r17,r3
 4003030:	400bb200 	call	400bb20 <__ledf2>
 4003034:	bdc00044 	addi	r23,r23,1
 4003038:	800d883a 	mov	r6,r16
 400303c:	880f883a 	mov	r7,r17
 4003040:	0009883a 	mov	r4,zero
 4003044:	014ffc34 	movhi	r5,16368
 4003048:	103fcf0e 	bge	r2,zero,4002f88 <__ram_exceptions_end+0xfbff2d58>
 400304c:	d8c01317 	ldw	r3,76(sp)
 4003050:	d8c00515 	stw	r3,20(sp)
 4003054:	d9400917 	ldw	r5,36(sp)
 4003058:	e009883a 	mov	r4,fp
 400305c:	400610c0 	call	400610c <_Bfree>
 4003060:	d9000517 	ldw	r4,20(sp)
 4003064:	d9802317 	ldw	r6,140(sp)
 4003068:	d9c02517 	ldw	r7,148(sp)
 400306c:	b8000005 	stb	zero,0(r23)
 4003070:	20800044 	addi	r2,r4,1
 4003074:	30800015 	stw	r2,0(r6)
 4003078:	3802aa26 	beq	r7,zero,4003b24 <_dtoa_r+0x1178>
 400307c:	3dc00015 	stw	r23,0(r7)
 4003080:	d8800717 	ldw	r2,28(sp)
 4003084:	003e7906 	br	4002a6c <__ram_exceptions_end+0xfbff283c>
 4003088:	00800434 	movhi	r2,16
 400308c:	10bfffc4 	addi	r2,r2,-1
 4003090:	88a2703a 	and	r17,r17,r2
 4003094:	883e851e 	bne	r17,zero,4002aac <__ram_exceptions_end+0xfbff287c>
 4003098:	00810074 	movhi	r2,1025
 400309c:	10bdc304 	addi	r2,r2,-2292
 40030a0:	003e8406 	br	4002ab4 <__ram_exceptions_end+0xfbff2884>
 40030a4:	10c00204 	addi	r3,r2,8
 40030a8:	003e8706 	br	4002ac8 <__ram_exceptions_end+0xfbff2898>
 40030ac:	01400434 	movhi	r5,16
 40030b0:	297fffc4 	addi	r5,r5,-1
 40030b4:	994a703a 	and	r5,r19,r5
 40030b8:	9009883a 	mov	r4,r18
 40030bc:	843f0044 	addi	r16,r16,-1023
 40030c0:	294ffc34 	orhi	r5,r5,16368
 40030c4:	dd800217 	ldw	r22,8(sp)
 40030c8:	d8001115 	stw	zero,68(sp)
 40030cc:	003ea506 	br	4002b64 <__ram_exceptions_end+0xfbff2934>
 40030d0:	00810074 	movhi	r2,1025
 40030d4:	10bdba04 	addi	r2,r2,-2328
 40030d8:	003e6406 	br	4002a6c <__ram_exceptions_end+0xfbff283c>
 40030dc:	e0001115 	stw	zero,68(fp)
 40030e0:	000b883a 	mov	r5,zero
 40030e4:	e009883a 	mov	r4,fp
 40030e8:	40060640 	call	4006064 <_Balloc>
 40030ec:	01bfffc4 	movi	r6,-1
 40030f0:	01c00044 	movi	r7,1
 40030f4:	d8800715 	stw	r2,28(sp)
 40030f8:	d9800c15 	stw	r6,48(sp)
 40030fc:	e0801015 	stw	r2,64(fp)
 4003100:	d8000315 	stw	zero,12(sp)
 4003104:	d9c00b15 	stw	r7,44(sp)
 4003108:	d9800615 	stw	r6,24(sp)
 400310c:	d8002215 	stw	zero,136(sp)
 4003110:	d8800117 	ldw	r2,4(sp)
 4003114:	10008916 	blt	r2,zero,400333c <_dtoa_r+0x990>
 4003118:	d9000517 	ldw	r4,20(sp)
 400311c:	00c00384 	movi	r3,14
 4003120:	19008616 	blt	r3,r4,400333c <_dtoa_r+0x990>
 4003124:	200490fa 	slli	r2,r4,3
 4003128:	00c10074 	movhi	r3,1025
 400312c:	d9802217 	ldw	r6,136(sp)
 4003130:	18fde204 	addi	r3,r3,-2168
 4003134:	1885883a 	add	r2,r3,r2
 4003138:	14000017 	ldw	r16,0(r2)
 400313c:	14400117 	ldw	r17,4(r2)
 4003140:	30016316 	blt	r6,zero,40036d0 <_dtoa_r+0xd24>
 4003144:	800d883a 	mov	r6,r16
 4003148:	880f883a 	mov	r7,r17
 400314c:	9009883a 	mov	r4,r18
 4003150:	980b883a 	mov	r5,r19
 4003154:	400afec0 	call	400afec <__divdf3>
 4003158:	180b883a 	mov	r5,r3
 400315c:	1009883a 	mov	r4,r2
 4003160:	400cd7c0 	call	400cd7c <__fixdfsi>
 4003164:	1009883a 	mov	r4,r2
 4003168:	102b883a 	mov	r21,r2
 400316c:	400cdfc0 	call	400cdfc <__floatsidf>
 4003170:	800d883a 	mov	r6,r16
 4003174:	880f883a 	mov	r7,r17
 4003178:	1009883a 	mov	r4,r2
 400317c:	180b883a 	mov	r5,r3
 4003180:	400bc140 	call	400bc14 <__muldf3>
 4003184:	100d883a 	mov	r6,r2
 4003188:	180f883a 	mov	r7,r3
 400318c:	9009883a 	mov	r4,r18
 4003190:	980b883a 	mov	r5,r19
 4003194:	400c4800 	call	400c480 <__subdf3>
 4003198:	d9c00717 	ldw	r7,28(sp)
 400319c:	1009883a 	mov	r4,r2
 40031a0:	a8800c04 	addi	r2,r21,48
 40031a4:	38800005 	stb	r2,0(r7)
 40031a8:	3dc00044 	addi	r23,r7,1
 40031ac:	d9c00617 	ldw	r7,24(sp)
 40031b0:	01800044 	movi	r6,1
 40031b4:	180b883a 	mov	r5,r3
 40031b8:	2005883a 	mov	r2,r4
 40031bc:	39803826 	beq	r7,r6,40032a0 <_dtoa_r+0x8f4>
 40031c0:	000d883a 	mov	r6,zero
 40031c4:	01d00934 	movhi	r7,16420
 40031c8:	400bc140 	call	400bc14 <__muldf3>
 40031cc:	000d883a 	mov	r6,zero
 40031d0:	000f883a 	mov	r7,zero
 40031d4:	1009883a 	mov	r4,r2
 40031d8:	180b883a 	mov	r5,r3
 40031dc:	1025883a 	mov	r18,r2
 40031e0:	1827883a 	mov	r19,r3
 40031e4:	400b9bc0 	call	400b9bc <__eqdf2>
 40031e8:	103f9a26 	beq	r2,zero,4003054 <__ram_exceptions_end+0xfbff2e24>
 40031ec:	d9c00617 	ldw	r7,24(sp)
 40031f0:	d8c00717 	ldw	r3,28(sp)
 40031f4:	b829883a 	mov	r20,r23
 40031f8:	38bfffc4 	addi	r2,r7,-1
 40031fc:	18ad883a 	add	r22,r3,r2
 4003200:	00000a06 	br	400322c <_dtoa_r+0x880>
 4003204:	400bc140 	call	400bc14 <__muldf3>
 4003208:	000d883a 	mov	r6,zero
 400320c:	000f883a 	mov	r7,zero
 4003210:	1009883a 	mov	r4,r2
 4003214:	180b883a 	mov	r5,r3
 4003218:	1025883a 	mov	r18,r2
 400321c:	1827883a 	mov	r19,r3
 4003220:	b829883a 	mov	r20,r23
 4003224:	400b9bc0 	call	400b9bc <__eqdf2>
 4003228:	103f8a26 	beq	r2,zero,4003054 <__ram_exceptions_end+0xfbff2e24>
 400322c:	800d883a 	mov	r6,r16
 4003230:	880f883a 	mov	r7,r17
 4003234:	9009883a 	mov	r4,r18
 4003238:	980b883a 	mov	r5,r19
 400323c:	400afec0 	call	400afec <__divdf3>
 4003240:	180b883a 	mov	r5,r3
 4003244:	1009883a 	mov	r4,r2
 4003248:	400cd7c0 	call	400cd7c <__fixdfsi>
 400324c:	1009883a 	mov	r4,r2
 4003250:	102b883a 	mov	r21,r2
 4003254:	400cdfc0 	call	400cdfc <__floatsidf>
 4003258:	800d883a 	mov	r6,r16
 400325c:	880f883a 	mov	r7,r17
 4003260:	1009883a 	mov	r4,r2
 4003264:	180b883a 	mov	r5,r3
 4003268:	400bc140 	call	400bc14 <__muldf3>
 400326c:	100d883a 	mov	r6,r2
 4003270:	180f883a 	mov	r7,r3
 4003274:	9009883a 	mov	r4,r18
 4003278:	980b883a 	mov	r5,r19
 400327c:	400c4800 	call	400c480 <__subdf3>
 4003280:	aa000c04 	addi	r8,r21,48
 4003284:	a2000005 	stb	r8,0(r20)
 4003288:	000d883a 	mov	r6,zero
 400328c:	01d00934 	movhi	r7,16420
 4003290:	1009883a 	mov	r4,r2
 4003294:	180b883a 	mov	r5,r3
 4003298:	a5c00044 	addi	r23,r20,1
 400329c:	b53fd91e 	bne	r22,r20,4003204 <__ram_exceptions_end+0xfbff2fd4>
 40032a0:	100d883a 	mov	r6,r2
 40032a4:	180f883a 	mov	r7,r3
 40032a8:	1009883a 	mov	r4,r2
 40032ac:	180b883a 	mov	r5,r3
 40032b0:	400a7400 	call	400a740 <__adddf3>
 40032b4:	100d883a 	mov	r6,r2
 40032b8:	180f883a 	mov	r7,r3
 40032bc:	8009883a 	mov	r4,r16
 40032c0:	880b883a 	mov	r5,r17
 40032c4:	1027883a 	mov	r19,r2
 40032c8:	1825883a 	mov	r18,r3
 40032cc:	400bb200 	call	400bb20 <__ledf2>
 40032d0:	10000816 	blt	r2,zero,40032f4 <_dtoa_r+0x948>
 40032d4:	980d883a 	mov	r6,r19
 40032d8:	900f883a 	mov	r7,r18
 40032dc:	8009883a 	mov	r4,r16
 40032e0:	880b883a 	mov	r5,r17
 40032e4:	400b9bc0 	call	400b9bc <__eqdf2>
 40032e8:	103f5a1e 	bne	r2,zero,4003054 <__ram_exceptions_end+0xfbff2e24>
 40032ec:	ad40004c 	andi	r21,r21,1
 40032f0:	a83f5826 	beq	r21,zero,4003054 <__ram_exceptions_end+0xfbff2e24>
 40032f4:	bd3fffc3 	ldbu	r20,-1(r23)
 40032f8:	b8bfffc4 	addi	r2,r23,-1
 40032fc:	1007883a 	mov	r3,r2
 4003300:	01400e44 	movi	r5,57
 4003304:	d9800717 	ldw	r6,28(sp)
 4003308:	00000506 	br	4003320 <_dtoa_r+0x974>
 400330c:	18ffffc4 	addi	r3,r3,-1
 4003310:	11824726 	beq	r2,r6,4003c30 <_dtoa_r+0x1284>
 4003314:	1d000003 	ldbu	r20,0(r3)
 4003318:	102f883a 	mov	r23,r2
 400331c:	10bfffc4 	addi	r2,r2,-1
 4003320:	a1003fcc 	andi	r4,r20,255
 4003324:	2100201c 	xori	r4,r4,128
 4003328:	213fe004 	addi	r4,r4,-128
 400332c:	217ff726 	beq	r4,r5,400330c <__ram_exceptions_end+0xfbff30dc>
 4003330:	a2000044 	addi	r8,r20,1
 4003334:	12000005 	stb	r8,0(r2)
 4003338:	003f4606 	br	4003054 <__ram_exceptions_end+0xfbff2e24>
 400333c:	d9000b17 	ldw	r4,44(sp)
 4003340:	2000c826 	beq	r4,zero,4003664 <_dtoa_r+0xcb8>
 4003344:	d9800317 	ldw	r6,12(sp)
 4003348:	00c00044 	movi	r3,1
 400334c:	1980f90e 	bge	r3,r6,4003734 <_dtoa_r+0xd88>
 4003350:	d8800617 	ldw	r2,24(sp)
 4003354:	d8c00a17 	ldw	r3,40(sp)
 4003358:	157fffc4 	addi	r21,r2,-1
 400335c:	1d41f316 	blt	r3,r21,4003b2c <_dtoa_r+0x1180>
 4003360:	1d6bc83a 	sub	r21,r3,r21
 4003364:	d9c00617 	ldw	r7,24(sp)
 4003368:	3802aa16 	blt	r7,zero,4003e14 <_dtoa_r+0x1468>
 400336c:	dd000817 	ldw	r20,32(sp)
 4003370:	d8800617 	ldw	r2,24(sp)
 4003374:	d8c00817 	ldw	r3,32(sp)
 4003378:	01400044 	movi	r5,1
 400337c:	e009883a 	mov	r4,fp
 4003380:	1887883a 	add	r3,r3,r2
 4003384:	d8c00815 	stw	r3,32(sp)
 4003388:	b0ad883a 	add	r22,r22,r2
 400338c:	40064980 	call	4006498 <__i2b>
 4003390:	1023883a 	mov	r17,r2
 4003394:	a0000826 	beq	r20,zero,40033b8 <_dtoa_r+0xa0c>
 4003398:	0580070e 	bge	zero,r22,40033b8 <_dtoa_r+0xa0c>
 400339c:	a005883a 	mov	r2,r20
 40033a0:	b500b916 	blt	r22,r20,4003688 <_dtoa_r+0xcdc>
 40033a4:	d9000817 	ldw	r4,32(sp)
 40033a8:	a0a9c83a 	sub	r20,r20,r2
 40033ac:	b0adc83a 	sub	r22,r22,r2
 40033b0:	2089c83a 	sub	r4,r4,r2
 40033b4:	d9000815 	stw	r4,32(sp)
 40033b8:	d9800a17 	ldw	r6,40(sp)
 40033bc:	0181810e 	bge	zero,r6,40039c4 <_dtoa_r+0x1018>
 40033c0:	d9c00b17 	ldw	r7,44(sp)
 40033c4:	3800b326 	beq	r7,zero,4003694 <_dtoa_r+0xce8>
 40033c8:	a800b226 	beq	r21,zero,4003694 <_dtoa_r+0xce8>
 40033cc:	880b883a 	mov	r5,r17
 40033d0:	a80d883a 	mov	r6,r21
 40033d4:	e009883a 	mov	r4,fp
 40033d8:	40067600 	call	4006760 <__pow5mult>
 40033dc:	d9800917 	ldw	r6,36(sp)
 40033e0:	100b883a 	mov	r5,r2
 40033e4:	e009883a 	mov	r4,fp
 40033e8:	1023883a 	mov	r17,r2
 40033ec:	40064d40 	call	40064d4 <__multiply>
 40033f0:	1021883a 	mov	r16,r2
 40033f4:	d8800a17 	ldw	r2,40(sp)
 40033f8:	d9400917 	ldw	r5,36(sp)
 40033fc:	e009883a 	mov	r4,fp
 4003400:	1545c83a 	sub	r2,r2,r21
 4003404:	d8800a15 	stw	r2,40(sp)
 4003408:	400610c0 	call	400610c <_Bfree>
 400340c:	d8c00a17 	ldw	r3,40(sp)
 4003410:	18009f1e 	bne	r3,zero,4003690 <_dtoa_r+0xce4>
 4003414:	05c00044 	movi	r23,1
 4003418:	e009883a 	mov	r4,fp
 400341c:	b80b883a 	mov	r5,r23
 4003420:	40064980 	call	4006498 <__i2b>
 4003424:	d9000d17 	ldw	r4,52(sp)
 4003428:	102b883a 	mov	r21,r2
 400342c:	2000ce26 	beq	r4,zero,4003768 <_dtoa_r+0xdbc>
 4003430:	200d883a 	mov	r6,r4
 4003434:	100b883a 	mov	r5,r2
 4003438:	e009883a 	mov	r4,fp
 400343c:	40067600 	call	4006760 <__pow5mult>
 4003440:	d9800317 	ldw	r6,12(sp)
 4003444:	102b883a 	mov	r21,r2
 4003448:	b981810e 	bge	r23,r6,4003a50 <_dtoa_r+0x10a4>
 400344c:	0027883a 	mov	r19,zero
 4003450:	a8800417 	ldw	r2,16(r21)
 4003454:	05c00804 	movi	r23,32
 4003458:	10800104 	addi	r2,r2,4
 400345c:	1085883a 	add	r2,r2,r2
 4003460:	1085883a 	add	r2,r2,r2
 4003464:	a885883a 	add	r2,r21,r2
 4003468:	11000017 	ldw	r4,0(r2)
 400346c:	40063800 	call	4006380 <__hi0bits>
 4003470:	b885c83a 	sub	r2,r23,r2
 4003474:	1585883a 	add	r2,r2,r22
 4003478:	108007cc 	andi	r2,r2,31
 400347c:	1000b326 	beq	r2,zero,400374c <_dtoa_r+0xda0>
 4003480:	00c00804 	movi	r3,32
 4003484:	1887c83a 	sub	r3,r3,r2
 4003488:	01000104 	movi	r4,4
 400348c:	20c2cd0e 	bge	r4,r3,4003fc4 <_dtoa_r+0x1618>
 4003490:	00c00704 	movi	r3,28
 4003494:	1885c83a 	sub	r2,r3,r2
 4003498:	d8c00817 	ldw	r3,32(sp)
 400349c:	a0a9883a 	add	r20,r20,r2
 40034a0:	b0ad883a 	add	r22,r22,r2
 40034a4:	1887883a 	add	r3,r3,r2
 40034a8:	d8c00815 	stw	r3,32(sp)
 40034ac:	d9800817 	ldw	r6,32(sp)
 40034b0:	0180040e 	bge	zero,r6,40034c4 <_dtoa_r+0xb18>
 40034b4:	800b883a 	mov	r5,r16
 40034b8:	e009883a 	mov	r4,fp
 40034bc:	40068a00 	call	40068a0 <__lshift>
 40034c0:	1021883a 	mov	r16,r2
 40034c4:	0580050e 	bge	zero,r22,40034dc <_dtoa_r+0xb30>
 40034c8:	a80b883a 	mov	r5,r21
 40034cc:	b00d883a 	mov	r6,r22
 40034d0:	e009883a 	mov	r4,fp
 40034d4:	40068a00 	call	40068a0 <__lshift>
 40034d8:	102b883a 	mov	r21,r2
 40034dc:	d9c00e17 	ldw	r7,56(sp)
 40034e0:	3801211e 	bne	r7,zero,4003968 <_dtoa_r+0xfbc>
 40034e4:	d9800617 	ldw	r6,24(sp)
 40034e8:	0181380e 	bge	zero,r6,40039cc <_dtoa_r+0x1020>
 40034ec:	d8c00b17 	ldw	r3,44(sp)
 40034f0:	1800ab1e 	bne	r3,zero,40037a0 <_dtoa_r+0xdf4>
 40034f4:	dc800717 	ldw	r18,28(sp)
 40034f8:	dcc00617 	ldw	r19,24(sp)
 40034fc:	9029883a 	mov	r20,r18
 4003500:	00000206 	br	400350c <_dtoa_r+0xb60>
 4003504:	40061340 	call	4006134 <__multadd>
 4003508:	1021883a 	mov	r16,r2
 400350c:	a80b883a 	mov	r5,r21
 4003510:	8009883a 	mov	r4,r16
 4003514:	40027840 	call	4002784 <quorem>
 4003518:	10800c04 	addi	r2,r2,48
 400351c:	90800005 	stb	r2,0(r18)
 4003520:	94800044 	addi	r18,r18,1
 4003524:	9507c83a 	sub	r3,r18,r20
 4003528:	000f883a 	mov	r7,zero
 400352c:	01800284 	movi	r6,10
 4003530:	800b883a 	mov	r5,r16
 4003534:	e009883a 	mov	r4,fp
 4003538:	1cfff216 	blt	r3,r19,4003504 <__ram_exceptions_end+0xfbff32d4>
 400353c:	1011883a 	mov	r8,r2
 4003540:	d8800617 	ldw	r2,24(sp)
 4003544:	0082370e 	bge	zero,r2,4003e24 <_dtoa_r+0x1478>
 4003548:	d9000717 	ldw	r4,28(sp)
 400354c:	0025883a 	mov	r18,zero
 4003550:	20af883a 	add	r23,r4,r2
 4003554:	01800044 	movi	r6,1
 4003558:	800b883a 	mov	r5,r16
 400355c:	e009883a 	mov	r4,fp
 4003560:	da001715 	stw	r8,92(sp)
 4003564:	40068a00 	call	40068a0 <__lshift>
 4003568:	a80b883a 	mov	r5,r21
 400356c:	1009883a 	mov	r4,r2
 4003570:	d8800915 	stw	r2,36(sp)
 4003574:	40069e80 	call	40069e8 <__mcmp>
 4003578:	da001717 	ldw	r8,92(sp)
 400357c:	0081800e 	bge	zero,r2,4003b80 <_dtoa_r+0x11d4>
 4003580:	b93fffc3 	ldbu	r4,-1(r23)
 4003584:	b8bfffc4 	addi	r2,r23,-1
 4003588:	1007883a 	mov	r3,r2
 400358c:	01800e44 	movi	r6,57
 4003590:	d9c00717 	ldw	r7,28(sp)
 4003594:	00000506 	br	40035ac <_dtoa_r+0xc00>
 4003598:	18ffffc4 	addi	r3,r3,-1
 400359c:	11c12326 	beq	r2,r7,4003a2c <_dtoa_r+0x1080>
 40035a0:	19000003 	ldbu	r4,0(r3)
 40035a4:	102f883a 	mov	r23,r2
 40035a8:	10bfffc4 	addi	r2,r2,-1
 40035ac:	21403fcc 	andi	r5,r4,255
 40035b0:	2940201c 	xori	r5,r5,128
 40035b4:	297fe004 	addi	r5,r5,-128
 40035b8:	29bff726 	beq	r5,r6,4003598 <__ram_exceptions_end+0xfbff3368>
 40035bc:	21000044 	addi	r4,r4,1
 40035c0:	11000005 	stb	r4,0(r2)
 40035c4:	a80b883a 	mov	r5,r21
 40035c8:	e009883a 	mov	r4,fp
 40035cc:	400610c0 	call	400610c <_Bfree>
 40035d0:	883ea026 	beq	r17,zero,4003054 <__ram_exceptions_end+0xfbff2e24>
 40035d4:	90000426 	beq	r18,zero,40035e8 <_dtoa_r+0xc3c>
 40035d8:	94400326 	beq	r18,r17,40035e8 <_dtoa_r+0xc3c>
 40035dc:	900b883a 	mov	r5,r18
 40035e0:	e009883a 	mov	r4,fp
 40035e4:	400610c0 	call	400610c <_Bfree>
 40035e8:	880b883a 	mov	r5,r17
 40035ec:	e009883a 	mov	r4,fp
 40035f0:	400610c0 	call	400610c <_Bfree>
 40035f4:	003e9706 	br	4003054 <__ram_exceptions_end+0xfbff2e24>
 40035f8:	01800044 	movi	r6,1
 40035fc:	d9800e15 	stw	r6,56(sp)
 4003600:	003d9606 	br	4002c5c <__ram_exceptions_end+0xfbff2a2c>
 4003604:	d8800817 	ldw	r2,32(sp)
 4003608:	d8c00517 	ldw	r3,20(sp)
 400360c:	d8000d15 	stw	zero,52(sp)
 4003610:	10c5c83a 	sub	r2,r2,r3
 4003614:	00c9c83a 	sub	r4,zero,r3
 4003618:	d8800815 	stw	r2,32(sp)
 400361c:	d9000a15 	stw	r4,40(sp)
 4003620:	003d9706 	br	4002c80 <__ram_exceptions_end+0xfbff2a50>
 4003624:	05adc83a 	sub	r22,zero,r22
 4003628:	dd800815 	stw	r22,32(sp)
 400362c:	002d883a 	mov	r22,zero
 4003630:	003d8e06 	br	4002c6c <__ram_exceptions_end+0xfbff2a3c>
 4003634:	d9000517 	ldw	r4,20(sp)
 4003638:	400cdfc0 	call	400cdfc <__floatsidf>
 400363c:	100d883a 	mov	r6,r2
 4003640:	180f883a 	mov	r7,r3
 4003644:	a009883a 	mov	r4,r20
 4003648:	880b883a 	mov	r5,r17
 400364c:	400b9bc0 	call	400b9bc <__eqdf2>
 4003650:	103d7126 	beq	r2,zero,4002c18 <__ram_exceptions_end+0xfbff29e8>
 4003654:	d9c00517 	ldw	r7,20(sp)
 4003658:	39ffffc4 	addi	r7,r7,-1
 400365c:	d9c00515 	stw	r7,20(sp)
 4003660:	003d6d06 	br	4002c18 <__ram_exceptions_end+0xfbff29e8>
 4003664:	dd400a17 	ldw	r21,40(sp)
 4003668:	dd000817 	ldw	r20,32(sp)
 400366c:	0023883a 	mov	r17,zero
 4003670:	003f4806 	br	4003394 <__ram_exceptions_end+0xfbff3164>
 4003674:	10e3c83a 	sub	r17,r2,r3
 4003678:	9448983a 	sll	r4,r18,r17
 400367c:	003d3206 	br	4002b48 <__ram_exceptions_end+0xfbff2918>
 4003680:	d8000e15 	stw	zero,56(sp)
 4003684:	003d7506 	br	4002c5c <__ram_exceptions_end+0xfbff2a2c>
 4003688:	b005883a 	mov	r2,r22
 400368c:	003f4506 	br	40033a4 <__ram_exceptions_end+0xfbff3174>
 4003690:	dc000915 	stw	r16,36(sp)
 4003694:	d9800a17 	ldw	r6,40(sp)
 4003698:	d9400917 	ldw	r5,36(sp)
 400369c:	e009883a 	mov	r4,fp
 40036a0:	40067600 	call	4006760 <__pow5mult>
 40036a4:	1021883a 	mov	r16,r2
 40036a8:	003f5a06 	br	4003414 <__ram_exceptions_end+0xfbff31e4>
 40036ac:	01c00044 	movi	r7,1
 40036b0:	d9c00b15 	stw	r7,44(sp)
 40036b4:	d8802217 	ldw	r2,136(sp)
 40036b8:	0081280e 	bge	zero,r2,4003b5c <_dtoa_r+0x11b0>
 40036bc:	100d883a 	mov	r6,r2
 40036c0:	1021883a 	mov	r16,r2
 40036c4:	d8800c15 	stw	r2,48(sp)
 40036c8:	d8800615 	stw	r2,24(sp)
 40036cc:	003d8806 	br	4002cf0 <__ram_exceptions_end+0xfbff2ac0>
 40036d0:	d8800617 	ldw	r2,24(sp)
 40036d4:	00be9b16 	blt	zero,r2,4003144 <__ram_exceptions_end+0xfbff2f14>
 40036d8:	10010f1e 	bne	r2,zero,4003b18 <_dtoa_r+0x116c>
 40036dc:	880b883a 	mov	r5,r17
 40036e0:	000d883a 	mov	r6,zero
 40036e4:	01d00534 	movhi	r7,16404
 40036e8:	8009883a 	mov	r4,r16
 40036ec:	400bc140 	call	400bc14 <__muldf3>
 40036f0:	900d883a 	mov	r6,r18
 40036f4:	980f883a 	mov	r7,r19
 40036f8:	1009883a 	mov	r4,r2
 40036fc:	180b883a 	mov	r5,r3
 4003700:	400ba440 	call	400ba44 <__gedf2>
 4003704:	002b883a 	mov	r21,zero
 4003708:	0023883a 	mov	r17,zero
 400370c:	1000bf16 	blt	r2,zero,4003a0c <_dtoa_r+0x1060>
 4003710:	d9802217 	ldw	r6,136(sp)
 4003714:	ddc00717 	ldw	r23,28(sp)
 4003718:	018c303a 	nor	r6,zero,r6
 400371c:	d9800515 	stw	r6,20(sp)
 4003720:	a80b883a 	mov	r5,r21
 4003724:	e009883a 	mov	r4,fp
 4003728:	400610c0 	call	400610c <_Bfree>
 400372c:	883e4926 	beq	r17,zero,4003054 <__ram_exceptions_end+0xfbff2e24>
 4003730:	003fad06 	br	40035e8 <__ram_exceptions_end+0xfbff33b8>
 4003734:	d9c01117 	ldw	r7,68(sp)
 4003738:	3801bc26 	beq	r7,zero,4003e2c <_dtoa_r+0x1480>
 400373c:	10810cc4 	addi	r2,r2,1075
 4003740:	dd400a17 	ldw	r21,40(sp)
 4003744:	dd000817 	ldw	r20,32(sp)
 4003748:	003f0a06 	br	4003374 <__ram_exceptions_end+0xfbff3144>
 400374c:	00800704 	movi	r2,28
 4003750:	d9000817 	ldw	r4,32(sp)
 4003754:	a0a9883a 	add	r20,r20,r2
 4003758:	b0ad883a 	add	r22,r22,r2
 400375c:	2089883a 	add	r4,r4,r2
 4003760:	d9000815 	stw	r4,32(sp)
 4003764:	003f5106 	br	40034ac <__ram_exceptions_end+0xfbff327c>
 4003768:	d8c00317 	ldw	r3,12(sp)
 400376c:	b8c1fc0e 	bge	r23,r3,4003f60 <_dtoa_r+0x15b4>
 4003770:	0027883a 	mov	r19,zero
 4003774:	b805883a 	mov	r2,r23
 4003778:	003f3e06 	br	4003474 <__ram_exceptions_end+0xfbff3244>
 400377c:	880b883a 	mov	r5,r17
 4003780:	e009883a 	mov	r4,fp
 4003784:	000f883a 	mov	r7,zero
 4003788:	01800284 	movi	r6,10
 400378c:	40061340 	call	4006134 <__multadd>
 4003790:	d9000c17 	ldw	r4,48(sp)
 4003794:	1023883a 	mov	r17,r2
 4003798:	0102040e 	bge	zero,r4,4003fac <_dtoa_r+0x1600>
 400379c:	d9000615 	stw	r4,24(sp)
 40037a0:	0500050e 	bge	zero,r20,40037b8 <_dtoa_r+0xe0c>
 40037a4:	880b883a 	mov	r5,r17
 40037a8:	a00d883a 	mov	r6,r20
 40037ac:	e009883a 	mov	r4,fp
 40037b0:	40068a00 	call	40068a0 <__lshift>
 40037b4:	1023883a 	mov	r17,r2
 40037b8:	9801241e 	bne	r19,zero,4003c4c <_dtoa_r+0x12a0>
 40037bc:	8829883a 	mov	r20,r17
 40037c0:	d9000617 	ldw	r4,24(sp)
 40037c4:	dcc00717 	ldw	r19,28(sp)
 40037c8:	9480004c 	andi	r18,r18,1
 40037cc:	20bfffc4 	addi	r2,r4,-1
 40037d0:	9885883a 	add	r2,r19,r2
 40037d4:	d8800415 	stw	r2,16(sp)
 40037d8:	dc800615 	stw	r18,24(sp)
 40037dc:	a80b883a 	mov	r5,r21
 40037e0:	8009883a 	mov	r4,r16
 40037e4:	40027840 	call	4002784 <quorem>
 40037e8:	880b883a 	mov	r5,r17
 40037ec:	8009883a 	mov	r4,r16
 40037f0:	102f883a 	mov	r23,r2
 40037f4:	40069e80 	call	40069e8 <__mcmp>
 40037f8:	a80b883a 	mov	r5,r21
 40037fc:	a00d883a 	mov	r6,r20
 4003800:	e009883a 	mov	r4,fp
 4003804:	102d883a 	mov	r22,r2
 4003808:	4006a480 	call	4006a48 <__mdiff>
 400380c:	1007883a 	mov	r3,r2
 4003810:	10800317 	ldw	r2,12(r2)
 4003814:	bc800c04 	addi	r18,r23,48
 4003818:	180b883a 	mov	r5,r3
 400381c:	10004e1e 	bne	r2,zero,4003958 <_dtoa_r+0xfac>
 4003820:	8009883a 	mov	r4,r16
 4003824:	d8c01615 	stw	r3,88(sp)
 4003828:	40069e80 	call	40069e8 <__mcmp>
 400382c:	d8c01617 	ldw	r3,88(sp)
 4003830:	e009883a 	mov	r4,fp
 4003834:	d8801615 	stw	r2,88(sp)
 4003838:	180b883a 	mov	r5,r3
 400383c:	400610c0 	call	400610c <_Bfree>
 4003840:	d8801617 	ldw	r2,88(sp)
 4003844:	1000041e 	bne	r2,zero,4003858 <_dtoa_r+0xeac>
 4003848:	d9800317 	ldw	r6,12(sp)
 400384c:	3000021e 	bne	r6,zero,4003858 <_dtoa_r+0xeac>
 4003850:	d8c00617 	ldw	r3,24(sp)
 4003854:	18003726 	beq	r3,zero,4003934 <_dtoa_r+0xf88>
 4003858:	b0002016 	blt	r22,zero,40038dc <_dtoa_r+0xf30>
 400385c:	b000041e 	bne	r22,zero,4003870 <_dtoa_r+0xec4>
 4003860:	d9000317 	ldw	r4,12(sp)
 4003864:	2000021e 	bne	r4,zero,4003870 <_dtoa_r+0xec4>
 4003868:	d8c00617 	ldw	r3,24(sp)
 400386c:	18001b26 	beq	r3,zero,40038dc <_dtoa_r+0xf30>
 4003870:	00810716 	blt	zero,r2,4003c90 <_dtoa_r+0x12e4>
 4003874:	d8c00417 	ldw	r3,16(sp)
 4003878:	9d800044 	addi	r22,r19,1
 400387c:	9c800005 	stb	r18,0(r19)
 4003880:	b02f883a 	mov	r23,r22
 4003884:	98c10626 	beq	r19,r3,4003ca0 <_dtoa_r+0x12f4>
 4003888:	800b883a 	mov	r5,r16
 400388c:	000f883a 	mov	r7,zero
 4003890:	01800284 	movi	r6,10
 4003894:	e009883a 	mov	r4,fp
 4003898:	40061340 	call	4006134 <__multadd>
 400389c:	1021883a 	mov	r16,r2
 40038a0:	000f883a 	mov	r7,zero
 40038a4:	01800284 	movi	r6,10
 40038a8:	880b883a 	mov	r5,r17
 40038ac:	e009883a 	mov	r4,fp
 40038b0:	8d002526 	beq	r17,r20,4003948 <_dtoa_r+0xf9c>
 40038b4:	40061340 	call	4006134 <__multadd>
 40038b8:	a00b883a 	mov	r5,r20
 40038bc:	000f883a 	mov	r7,zero
 40038c0:	01800284 	movi	r6,10
 40038c4:	e009883a 	mov	r4,fp
 40038c8:	1023883a 	mov	r17,r2
 40038cc:	40061340 	call	4006134 <__multadd>
 40038d0:	1029883a 	mov	r20,r2
 40038d4:	b027883a 	mov	r19,r22
 40038d8:	003fc006 	br	40037dc <__ram_exceptions_end+0xfbff35ac>
 40038dc:	9011883a 	mov	r8,r18
 40038e0:	00800e0e 	bge	zero,r2,400391c <_dtoa_r+0xf70>
 40038e4:	800b883a 	mov	r5,r16
 40038e8:	01800044 	movi	r6,1
 40038ec:	e009883a 	mov	r4,fp
 40038f0:	da001715 	stw	r8,92(sp)
 40038f4:	40068a00 	call	40068a0 <__lshift>
 40038f8:	a80b883a 	mov	r5,r21
 40038fc:	1009883a 	mov	r4,r2
 4003900:	1021883a 	mov	r16,r2
 4003904:	40069e80 	call	40069e8 <__mcmp>
 4003908:	da001717 	ldw	r8,92(sp)
 400390c:	0081960e 	bge	zero,r2,4003f68 <_dtoa_r+0x15bc>
 4003910:	00800e44 	movi	r2,57
 4003914:	40817026 	beq	r8,r2,4003ed8 <_dtoa_r+0x152c>
 4003918:	ba000c44 	addi	r8,r23,49
 400391c:	8825883a 	mov	r18,r17
 4003920:	9dc00044 	addi	r23,r19,1
 4003924:	9a000005 	stb	r8,0(r19)
 4003928:	a023883a 	mov	r17,r20
 400392c:	dc000915 	stw	r16,36(sp)
 4003930:	003f2406 	br	40035c4 <__ram_exceptions_end+0xfbff3394>
 4003934:	00800e44 	movi	r2,57
 4003938:	9011883a 	mov	r8,r18
 400393c:	90816626 	beq	r18,r2,4003ed8 <_dtoa_r+0x152c>
 4003940:	05bff516 	blt	zero,r22,4003918 <__ram_exceptions_end+0xfbff36e8>
 4003944:	003ff506 	br	400391c <__ram_exceptions_end+0xfbff36ec>
 4003948:	40061340 	call	4006134 <__multadd>
 400394c:	1023883a 	mov	r17,r2
 4003950:	1029883a 	mov	r20,r2
 4003954:	003fdf06 	br	40038d4 <__ram_exceptions_end+0xfbff36a4>
 4003958:	e009883a 	mov	r4,fp
 400395c:	400610c0 	call	400610c <_Bfree>
 4003960:	00800044 	movi	r2,1
 4003964:	003fbc06 	br	4003858 <__ram_exceptions_end+0xfbff3628>
 4003968:	a80b883a 	mov	r5,r21
 400396c:	8009883a 	mov	r4,r16
 4003970:	40069e80 	call	40069e8 <__mcmp>
 4003974:	103edb0e 	bge	r2,zero,40034e4 <__ram_exceptions_end+0xfbff32b4>
 4003978:	800b883a 	mov	r5,r16
 400397c:	000f883a 	mov	r7,zero
 4003980:	01800284 	movi	r6,10
 4003984:	e009883a 	mov	r4,fp
 4003988:	40061340 	call	4006134 <__multadd>
 400398c:	1021883a 	mov	r16,r2
 4003990:	d8800517 	ldw	r2,20(sp)
 4003994:	d8c00b17 	ldw	r3,44(sp)
 4003998:	10bfffc4 	addi	r2,r2,-1
 400399c:	d8800515 	stw	r2,20(sp)
 40039a0:	183f761e 	bne	r3,zero,400377c <__ram_exceptions_end+0xfbff354c>
 40039a4:	d9000c17 	ldw	r4,48(sp)
 40039a8:	0101730e 	bge	zero,r4,4003f78 <_dtoa_r+0x15cc>
 40039ac:	d9000615 	stw	r4,24(sp)
 40039b0:	003ed006 	br	40034f4 <__ram_exceptions_end+0xfbff32c4>
 40039b4:	00800084 	movi	r2,2
 40039b8:	3081861e 	bne	r6,r2,4003fd4 <_dtoa_r+0x1628>
 40039bc:	d8000b15 	stw	zero,44(sp)
 40039c0:	003f3c06 	br	40036b4 <__ram_exceptions_end+0xfbff3484>
 40039c4:	dc000917 	ldw	r16,36(sp)
 40039c8:	003e9206 	br	4003414 <__ram_exceptions_end+0xfbff31e4>
 40039cc:	d9c00317 	ldw	r7,12(sp)
 40039d0:	00800084 	movi	r2,2
 40039d4:	11fec50e 	bge	r2,r7,40034ec <__ram_exceptions_end+0xfbff32bc>
 40039d8:	d9000617 	ldw	r4,24(sp)
 40039dc:	20013c1e 	bne	r4,zero,4003ed0 <_dtoa_r+0x1524>
 40039e0:	a80b883a 	mov	r5,r21
 40039e4:	000f883a 	mov	r7,zero
 40039e8:	01800144 	movi	r6,5
 40039ec:	e009883a 	mov	r4,fp
 40039f0:	40061340 	call	4006134 <__multadd>
 40039f4:	100b883a 	mov	r5,r2
 40039f8:	8009883a 	mov	r4,r16
 40039fc:	102b883a 	mov	r21,r2
 4003a00:	40069e80 	call	40069e8 <__mcmp>
 4003a04:	dc000915 	stw	r16,36(sp)
 4003a08:	00bf410e 	bge	zero,r2,4003710 <__ram_exceptions_end+0xfbff34e0>
 4003a0c:	d9c00717 	ldw	r7,28(sp)
 4003a10:	00800c44 	movi	r2,49
 4003a14:	38800005 	stb	r2,0(r7)
 4003a18:	d8800517 	ldw	r2,20(sp)
 4003a1c:	3dc00044 	addi	r23,r7,1
 4003a20:	10800044 	addi	r2,r2,1
 4003a24:	d8800515 	stw	r2,20(sp)
 4003a28:	003f3d06 	br	4003720 <__ram_exceptions_end+0xfbff34f0>
 4003a2c:	d9800517 	ldw	r6,20(sp)
 4003a30:	d9c00717 	ldw	r7,28(sp)
 4003a34:	00800c44 	movi	r2,49
 4003a38:	31800044 	addi	r6,r6,1
 4003a3c:	d9800515 	stw	r6,20(sp)
 4003a40:	38800005 	stb	r2,0(r7)
 4003a44:	003edf06 	br	40035c4 <__ram_exceptions_end+0xfbff3394>
 4003a48:	d8000b15 	stw	zero,44(sp)
 4003a4c:	003c9f06 	br	4002ccc <__ram_exceptions_end+0xfbff2a9c>
 4003a50:	903e7e1e 	bne	r18,zero,400344c <__ram_exceptions_end+0xfbff321c>
 4003a54:	00800434 	movhi	r2,16
 4003a58:	10bfffc4 	addi	r2,r2,-1
 4003a5c:	9884703a 	and	r2,r19,r2
 4003a60:	1000ea1e 	bne	r2,zero,4003e0c <_dtoa_r+0x1460>
 4003a64:	9cdffc2c 	andhi	r19,r19,32752
 4003a68:	9800e826 	beq	r19,zero,4003e0c <_dtoa_r+0x1460>
 4003a6c:	d9c00817 	ldw	r7,32(sp)
 4003a70:	b5800044 	addi	r22,r22,1
 4003a74:	04c00044 	movi	r19,1
 4003a78:	39c00044 	addi	r7,r7,1
 4003a7c:	d9c00815 	stw	r7,32(sp)
 4003a80:	d8800d17 	ldw	r2,52(sp)
 4003a84:	103e721e 	bne	r2,zero,4003450 <__ram_exceptions_end+0xfbff3220>
 4003a88:	00800044 	movi	r2,1
 4003a8c:	003e7906 	br	4003474 <__ram_exceptions_end+0xfbff3244>
 4003a90:	8009883a 	mov	r4,r16
 4003a94:	400cdfc0 	call	400cdfc <__floatsidf>
 4003a98:	d9800f17 	ldw	r6,60(sp)
 4003a9c:	d9c01017 	ldw	r7,64(sp)
 4003aa0:	1009883a 	mov	r4,r2
 4003aa4:	180b883a 	mov	r5,r3
 4003aa8:	400bc140 	call	400bc14 <__muldf3>
 4003aac:	000d883a 	mov	r6,zero
 4003ab0:	01d00734 	movhi	r7,16412
 4003ab4:	1009883a 	mov	r4,r2
 4003ab8:	180b883a 	mov	r5,r3
 4003abc:	400a7400 	call	400a740 <__adddf3>
 4003ac0:	047f3034 	movhi	r17,64704
 4003ac4:	1021883a 	mov	r16,r2
 4003ac8:	1c63883a 	add	r17,r3,r17
 4003acc:	d9000f17 	ldw	r4,60(sp)
 4003ad0:	d9401017 	ldw	r5,64(sp)
 4003ad4:	000d883a 	mov	r6,zero
 4003ad8:	01d00534 	movhi	r7,16404
 4003adc:	400c4800 	call	400c480 <__subdf3>
 4003ae0:	800d883a 	mov	r6,r16
 4003ae4:	880f883a 	mov	r7,r17
 4003ae8:	1009883a 	mov	r4,r2
 4003aec:	180b883a 	mov	r5,r3
 4003af0:	102b883a 	mov	r21,r2
 4003af4:	1829883a 	mov	r20,r3
 4003af8:	400ba440 	call	400ba44 <__gedf2>
 4003afc:	00806c16 	blt	zero,r2,4003cb0 <_dtoa_r+0x1304>
 4003b00:	89e0003c 	xorhi	r7,r17,32768
 4003b04:	800d883a 	mov	r6,r16
 4003b08:	a809883a 	mov	r4,r21
 4003b0c:	a00b883a 	mov	r5,r20
 4003b10:	400bb200 	call	400bb20 <__ledf2>
 4003b14:	103d7e0e 	bge	r2,zero,4003110 <__ram_exceptions_end+0xfbff2ee0>
 4003b18:	002b883a 	mov	r21,zero
 4003b1c:	0023883a 	mov	r17,zero
 4003b20:	003efb06 	br	4003710 <__ram_exceptions_end+0xfbff34e0>
 4003b24:	d8800717 	ldw	r2,28(sp)
 4003b28:	003bd006 	br	4002a6c <__ram_exceptions_end+0xfbff283c>
 4003b2c:	d9000a17 	ldw	r4,40(sp)
 4003b30:	d9800d17 	ldw	r6,52(sp)
 4003b34:	dd400a15 	stw	r21,40(sp)
 4003b38:	a905c83a 	sub	r2,r21,r4
 4003b3c:	308d883a 	add	r6,r6,r2
 4003b40:	d9800d15 	stw	r6,52(sp)
 4003b44:	002b883a 	mov	r21,zero
 4003b48:	003e0606 	br	4003364 <__ram_exceptions_end+0xfbff3134>
 4003b4c:	9023883a 	mov	r17,r18
 4003b50:	9829883a 	mov	r20,r19
 4003b54:	04000084 	movi	r16,2
 4003b58:	003c9206 	br	4002da4 <__ram_exceptions_end+0xfbff2b74>
 4003b5c:	04000044 	movi	r16,1
 4003b60:	dc000c15 	stw	r16,48(sp)
 4003b64:	dc000615 	stw	r16,24(sp)
 4003b68:	dc002215 	stw	r16,136(sp)
 4003b6c:	e0001115 	stw	zero,68(fp)
 4003b70:	000b883a 	mov	r5,zero
 4003b74:	003c6906 	br	4002d1c <__ram_exceptions_end+0xfbff2aec>
 4003b78:	3021883a 	mov	r16,r6
 4003b7c:	003ffb06 	br	4003b6c <__ram_exceptions_end+0xfbff393c>
 4003b80:	1000021e 	bne	r2,zero,4003b8c <_dtoa_r+0x11e0>
 4003b84:	4200004c 	andi	r8,r8,1
 4003b88:	403e7d1e 	bne	r8,zero,4003580 <__ram_exceptions_end+0xfbff3350>
 4003b8c:	01000c04 	movi	r4,48
 4003b90:	00000106 	br	4003b98 <_dtoa_r+0x11ec>
 4003b94:	102f883a 	mov	r23,r2
 4003b98:	b8bfffc4 	addi	r2,r23,-1
 4003b9c:	10c00007 	ldb	r3,0(r2)
 4003ba0:	193ffc26 	beq	r3,r4,4003b94 <__ram_exceptions_end+0xfbff3964>
 4003ba4:	003e8706 	br	40035c4 <__ram_exceptions_end+0xfbff3394>
 4003ba8:	d8800517 	ldw	r2,20(sp)
 4003bac:	00a3c83a 	sub	r17,zero,r2
 4003bb0:	8800a426 	beq	r17,zero,4003e44 <_dtoa_r+0x1498>
 4003bb4:	888003cc 	andi	r2,r17,15
 4003bb8:	100490fa 	slli	r2,r2,3
 4003bbc:	00c10074 	movhi	r3,1025
 4003bc0:	18fde204 	addi	r3,r3,-2168
 4003bc4:	1885883a 	add	r2,r3,r2
 4003bc8:	11800017 	ldw	r6,0(r2)
 4003bcc:	11c00117 	ldw	r7,4(r2)
 4003bd0:	9009883a 	mov	r4,r18
 4003bd4:	980b883a 	mov	r5,r19
 4003bd8:	8823d13a 	srai	r17,r17,4
 4003bdc:	400bc140 	call	400bc14 <__muldf3>
 4003be0:	d8800f15 	stw	r2,60(sp)
 4003be4:	d8c01015 	stw	r3,64(sp)
 4003be8:	8800e826 	beq	r17,zero,4003f8c <_dtoa_r+0x15e0>
 4003bec:	05010074 	movhi	r20,1025
 4003bf0:	a53dd804 	addi	r20,r20,-2208
 4003bf4:	04000084 	movi	r16,2
 4003bf8:	8980004c 	andi	r6,r17,1
 4003bfc:	1009883a 	mov	r4,r2
 4003c00:	8823d07a 	srai	r17,r17,1
 4003c04:	180b883a 	mov	r5,r3
 4003c08:	30000426 	beq	r6,zero,4003c1c <_dtoa_r+0x1270>
 4003c0c:	a1800017 	ldw	r6,0(r20)
 4003c10:	a1c00117 	ldw	r7,4(r20)
 4003c14:	84000044 	addi	r16,r16,1
 4003c18:	400bc140 	call	400bc14 <__muldf3>
 4003c1c:	a5000204 	addi	r20,r20,8
 4003c20:	883ff51e 	bne	r17,zero,4003bf8 <__ram_exceptions_end+0xfbff39c8>
 4003c24:	d8800f15 	stw	r2,60(sp)
 4003c28:	d8c01015 	stw	r3,64(sp)
 4003c2c:	003c7606 	br	4002e08 <__ram_exceptions_end+0xfbff2bd8>
 4003c30:	00c00c04 	movi	r3,48
 4003c34:	10c00005 	stb	r3,0(r2)
 4003c38:	d8c00517 	ldw	r3,20(sp)
 4003c3c:	bd3fffc3 	ldbu	r20,-1(r23)
 4003c40:	18c00044 	addi	r3,r3,1
 4003c44:	d8c00515 	stw	r3,20(sp)
 4003c48:	003db906 	br	4003330 <__ram_exceptions_end+0xfbff3100>
 4003c4c:	89400117 	ldw	r5,4(r17)
 4003c50:	e009883a 	mov	r4,fp
 4003c54:	40060640 	call	4006064 <_Balloc>
 4003c58:	89800417 	ldw	r6,16(r17)
 4003c5c:	89400304 	addi	r5,r17,12
 4003c60:	11000304 	addi	r4,r2,12
 4003c64:	31800084 	addi	r6,r6,2
 4003c68:	318d883a 	add	r6,r6,r6
 4003c6c:	318d883a 	add	r6,r6,r6
 4003c70:	1027883a 	mov	r19,r2
 4003c74:	4005c980 	call	4005c98 <memcpy>
 4003c78:	01800044 	movi	r6,1
 4003c7c:	980b883a 	mov	r5,r19
 4003c80:	e009883a 	mov	r4,fp
 4003c84:	40068a00 	call	40068a0 <__lshift>
 4003c88:	1029883a 	mov	r20,r2
 4003c8c:	003ecc06 	br	40037c0 <__ram_exceptions_end+0xfbff3590>
 4003c90:	00800e44 	movi	r2,57
 4003c94:	90809026 	beq	r18,r2,4003ed8 <_dtoa_r+0x152c>
 4003c98:	92000044 	addi	r8,r18,1
 4003c9c:	003f1f06 	br	400391c <__ram_exceptions_end+0xfbff36ec>
 4003ca0:	9011883a 	mov	r8,r18
 4003ca4:	8825883a 	mov	r18,r17
 4003ca8:	a023883a 	mov	r17,r20
 4003cac:	003e2906 	br	4003554 <__ram_exceptions_end+0xfbff3324>
 4003cb0:	002b883a 	mov	r21,zero
 4003cb4:	0023883a 	mov	r17,zero
 4003cb8:	003f5406 	br	4003a0c <__ram_exceptions_end+0xfbff37dc>
 4003cbc:	61bfffc4 	addi	r6,r12,-1
 4003cc0:	300490fa 	slli	r2,r6,3
 4003cc4:	00c10074 	movhi	r3,1025
 4003cc8:	18fde204 	addi	r3,r3,-2168
 4003ccc:	1885883a 	add	r2,r3,r2
 4003cd0:	11000017 	ldw	r4,0(r2)
 4003cd4:	11400117 	ldw	r5,4(r2)
 4003cd8:	d8800717 	ldw	r2,28(sp)
 4003cdc:	880f883a 	mov	r7,r17
 4003ce0:	d9801215 	stw	r6,72(sp)
 4003ce4:	800d883a 	mov	r6,r16
 4003ce8:	db001615 	stw	r12,88(sp)
 4003cec:	15c00044 	addi	r23,r2,1
 4003cf0:	400bc140 	call	400bc14 <__muldf3>
 4003cf4:	d9401017 	ldw	r5,64(sp)
 4003cf8:	d9000f17 	ldw	r4,60(sp)
 4003cfc:	d8c01515 	stw	r3,84(sp)
 4003d00:	d8801415 	stw	r2,80(sp)
 4003d04:	400cd7c0 	call	400cd7c <__fixdfsi>
 4003d08:	1009883a 	mov	r4,r2
 4003d0c:	1021883a 	mov	r16,r2
 4003d10:	400cdfc0 	call	400cdfc <__floatsidf>
 4003d14:	d9000f17 	ldw	r4,60(sp)
 4003d18:	d9401017 	ldw	r5,64(sp)
 4003d1c:	100d883a 	mov	r6,r2
 4003d20:	180f883a 	mov	r7,r3
 4003d24:	400c4800 	call	400c480 <__subdf3>
 4003d28:	1829883a 	mov	r20,r3
 4003d2c:	d8c00717 	ldw	r3,28(sp)
 4003d30:	84000c04 	addi	r16,r16,48
 4003d34:	1023883a 	mov	r17,r2
 4003d38:	1c000005 	stb	r16,0(r3)
 4003d3c:	db001617 	ldw	r12,88(sp)
 4003d40:	00800044 	movi	r2,1
 4003d44:	60802226 	beq	r12,r2,4003dd0 <_dtoa_r+0x1424>
 4003d48:	d9c00717 	ldw	r7,28(sp)
 4003d4c:	8805883a 	mov	r2,r17
 4003d50:	b82b883a 	mov	r21,r23
 4003d54:	3b19883a 	add	r12,r7,r12
 4003d58:	6023883a 	mov	r17,r12
 4003d5c:	a007883a 	mov	r3,r20
 4003d60:	dc800f15 	stw	r18,60(sp)
 4003d64:	000d883a 	mov	r6,zero
 4003d68:	01d00934 	movhi	r7,16420
 4003d6c:	1009883a 	mov	r4,r2
 4003d70:	180b883a 	mov	r5,r3
 4003d74:	400bc140 	call	400bc14 <__muldf3>
 4003d78:	180b883a 	mov	r5,r3
 4003d7c:	1009883a 	mov	r4,r2
 4003d80:	1829883a 	mov	r20,r3
 4003d84:	1025883a 	mov	r18,r2
 4003d88:	400cd7c0 	call	400cd7c <__fixdfsi>
 4003d8c:	1009883a 	mov	r4,r2
 4003d90:	1021883a 	mov	r16,r2
 4003d94:	400cdfc0 	call	400cdfc <__floatsidf>
 4003d98:	100d883a 	mov	r6,r2
 4003d9c:	180f883a 	mov	r7,r3
 4003da0:	9009883a 	mov	r4,r18
 4003da4:	a00b883a 	mov	r5,r20
 4003da8:	84000c04 	addi	r16,r16,48
 4003dac:	400c4800 	call	400c480 <__subdf3>
 4003db0:	ad400044 	addi	r21,r21,1
 4003db4:	ac3fffc5 	stb	r16,-1(r21)
 4003db8:	ac7fea1e 	bne	r21,r17,4003d64 <__ram_exceptions_end+0xfbff3b34>
 4003dbc:	1023883a 	mov	r17,r2
 4003dc0:	d8801217 	ldw	r2,72(sp)
 4003dc4:	dc800f17 	ldw	r18,60(sp)
 4003dc8:	1829883a 	mov	r20,r3
 4003dcc:	b8af883a 	add	r23,r23,r2
 4003dd0:	d9001417 	ldw	r4,80(sp)
 4003dd4:	d9401517 	ldw	r5,84(sp)
 4003dd8:	000d883a 	mov	r6,zero
 4003ddc:	01cff834 	movhi	r7,16352
 4003de0:	400a7400 	call	400a740 <__adddf3>
 4003de4:	880d883a 	mov	r6,r17
 4003de8:	a00f883a 	mov	r7,r20
 4003dec:	1009883a 	mov	r4,r2
 4003df0:	180b883a 	mov	r5,r3
 4003df4:	400bb200 	call	400bb20 <__ledf2>
 4003df8:	10003e0e 	bge	r2,zero,4003ef4 <_dtoa_r+0x1548>
 4003dfc:	d9001317 	ldw	r4,76(sp)
 4003e00:	bd3fffc3 	ldbu	r20,-1(r23)
 4003e04:	d9000515 	stw	r4,20(sp)
 4003e08:	003d3b06 	br	40032f8 <__ram_exceptions_end+0xfbff30c8>
 4003e0c:	0027883a 	mov	r19,zero
 4003e10:	003f1b06 	br	4003a80 <__ram_exceptions_end+0xfbff3850>
 4003e14:	d8800817 	ldw	r2,32(sp)
 4003e18:	11e9c83a 	sub	r20,r2,r7
 4003e1c:	0005883a 	mov	r2,zero
 4003e20:	003d5406 	br	4003374 <__ram_exceptions_end+0xfbff3144>
 4003e24:	00800044 	movi	r2,1
 4003e28:	003dc706 	br	4003548 <__ram_exceptions_end+0xfbff3318>
 4003e2c:	d8c00217 	ldw	r3,8(sp)
 4003e30:	00800d84 	movi	r2,54
 4003e34:	dd400a17 	ldw	r21,40(sp)
 4003e38:	10c5c83a 	sub	r2,r2,r3
 4003e3c:	dd000817 	ldw	r20,32(sp)
 4003e40:	003d4c06 	br	4003374 <__ram_exceptions_end+0xfbff3144>
 4003e44:	dc800f15 	stw	r18,60(sp)
 4003e48:	dcc01015 	stw	r19,64(sp)
 4003e4c:	04000084 	movi	r16,2
 4003e50:	003bed06 	br	4002e08 <__ram_exceptions_end+0xfbff2bd8>
 4003e54:	d9000617 	ldw	r4,24(sp)
 4003e58:	203f0d26 	beq	r4,zero,4003a90 <__ram_exceptions_end+0xfbff3860>
 4003e5c:	d9800c17 	ldw	r6,48(sp)
 4003e60:	01bcab0e 	bge	zero,r6,4003110 <__ram_exceptions_end+0xfbff2ee0>
 4003e64:	d9401017 	ldw	r5,64(sp)
 4003e68:	d9000f17 	ldw	r4,60(sp)
 4003e6c:	000d883a 	mov	r6,zero
 4003e70:	01d00934 	movhi	r7,16420
 4003e74:	400bc140 	call	400bc14 <__muldf3>
 4003e78:	81000044 	addi	r4,r16,1
 4003e7c:	d8800f15 	stw	r2,60(sp)
 4003e80:	d8c01015 	stw	r3,64(sp)
 4003e84:	400cdfc0 	call	400cdfc <__floatsidf>
 4003e88:	d9800f17 	ldw	r6,60(sp)
 4003e8c:	d9c01017 	ldw	r7,64(sp)
 4003e90:	1009883a 	mov	r4,r2
 4003e94:	180b883a 	mov	r5,r3
 4003e98:	400bc140 	call	400bc14 <__muldf3>
 4003e9c:	01d00734 	movhi	r7,16412
 4003ea0:	000d883a 	mov	r6,zero
 4003ea4:	1009883a 	mov	r4,r2
 4003ea8:	180b883a 	mov	r5,r3
 4003eac:	400a7400 	call	400a740 <__adddf3>
 4003eb0:	d9c00517 	ldw	r7,20(sp)
 4003eb4:	047f3034 	movhi	r17,64704
 4003eb8:	1021883a 	mov	r16,r2
 4003ebc:	39ffffc4 	addi	r7,r7,-1
 4003ec0:	d9c01315 	stw	r7,76(sp)
 4003ec4:	1c63883a 	add	r17,r3,r17
 4003ec8:	db000c17 	ldw	r12,48(sp)
 4003ecc:	003bea06 	br	4002e78 <__ram_exceptions_end+0xfbff2c48>
 4003ed0:	dc000915 	stw	r16,36(sp)
 4003ed4:	003e0e06 	br	4003710 <__ram_exceptions_end+0xfbff34e0>
 4003ed8:	01000e44 	movi	r4,57
 4003edc:	8825883a 	mov	r18,r17
 4003ee0:	9dc00044 	addi	r23,r19,1
 4003ee4:	99000005 	stb	r4,0(r19)
 4003ee8:	a023883a 	mov	r17,r20
 4003eec:	dc000915 	stw	r16,36(sp)
 4003ef0:	003da406 	br	4003584 <__ram_exceptions_end+0xfbff3354>
 4003ef4:	d9801417 	ldw	r6,80(sp)
 4003ef8:	d9c01517 	ldw	r7,84(sp)
 4003efc:	0009883a 	mov	r4,zero
 4003f00:	014ff834 	movhi	r5,16352
 4003f04:	400c4800 	call	400c480 <__subdf3>
 4003f08:	880d883a 	mov	r6,r17
 4003f0c:	a00f883a 	mov	r7,r20
 4003f10:	1009883a 	mov	r4,r2
 4003f14:	180b883a 	mov	r5,r3
 4003f18:	400ba440 	call	400ba44 <__gedf2>
 4003f1c:	00bc7c0e 	bge	zero,r2,4003110 <__ram_exceptions_end+0xfbff2ee0>
 4003f20:	01000c04 	movi	r4,48
 4003f24:	00000106 	br	4003f2c <_dtoa_r+0x1580>
 4003f28:	102f883a 	mov	r23,r2
 4003f2c:	b8bfffc4 	addi	r2,r23,-1
 4003f30:	10c00007 	ldb	r3,0(r2)
 4003f34:	193ffc26 	beq	r3,r4,4003f28 <__ram_exceptions_end+0xfbff3cf8>
 4003f38:	d9801317 	ldw	r6,76(sp)
 4003f3c:	d9800515 	stw	r6,20(sp)
 4003f40:	003c4406 	br	4003054 <__ram_exceptions_end+0xfbff2e24>
 4003f44:	d9801317 	ldw	r6,76(sp)
 4003f48:	d9800515 	stw	r6,20(sp)
 4003f4c:	003cea06 	br	40032f8 <__ram_exceptions_end+0xfbff30c8>
 4003f50:	dd800f17 	ldw	r22,60(sp)
 4003f54:	dcc01017 	ldw	r19,64(sp)
 4003f58:	dc801217 	ldw	r18,72(sp)
 4003f5c:	003c6c06 	br	4003110 <__ram_exceptions_end+0xfbff2ee0>
 4003f60:	903e031e 	bne	r18,zero,4003770 <__ram_exceptions_end+0xfbff3540>
 4003f64:	003ebb06 	br	4003a54 <__ram_exceptions_end+0xfbff3824>
 4003f68:	103e6c1e 	bne	r2,zero,400391c <__ram_exceptions_end+0xfbff36ec>
 4003f6c:	4080004c 	andi	r2,r8,1
 4003f70:	103e6a26 	beq	r2,zero,400391c <__ram_exceptions_end+0xfbff36ec>
 4003f74:	003e6606 	br	4003910 <__ram_exceptions_end+0xfbff36e0>
 4003f78:	d8c00317 	ldw	r3,12(sp)
 4003f7c:	00800084 	movi	r2,2
 4003f80:	10c02916 	blt	r2,r3,4004028 <_dtoa_r+0x167c>
 4003f84:	d9000c17 	ldw	r4,48(sp)
 4003f88:	003e8806 	br	40039ac <__ram_exceptions_end+0xfbff377c>
 4003f8c:	04000084 	movi	r16,2
 4003f90:	003b9d06 	br	4002e08 <__ram_exceptions_end+0xfbff2bd8>
 4003f94:	d9001317 	ldw	r4,76(sp)
 4003f98:	d9000515 	stw	r4,20(sp)
 4003f9c:	003cd606 	br	40032f8 <__ram_exceptions_end+0xfbff30c8>
 4003fa0:	d8801317 	ldw	r2,76(sp)
 4003fa4:	d8800515 	stw	r2,20(sp)
 4003fa8:	003c2a06 	br	4003054 <__ram_exceptions_end+0xfbff2e24>
 4003fac:	d9800317 	ldw	r6,12(sp)
 4003fb0:	00800084 	movi	r2,2
 4003fb4:	11801516 	blt	r2,r6,400400c <_dtoa_r+0x1660>
 4003fb8:	d9c00c17 	ldw	r7,48(sp)
 4003fbc:	d9c00615 	stw	r7,24(sp)
 4003fc0:	003df706 	br	40037a0 <__ram_exceptions_end+0xfbff3570>
 4003fc4:	193d3926 	beq	r3,r4,40034ac <__ram_exceptions_end+0xfbff327c>
 4003fc8:	00c00f04 	movi	r3,60
 4003fcc:	1885c83a 	sub	r2,r3,r2
 4003fd0:	003ddf06 	br	4003750 <__ram_exceptions_end+0xfbff3520>
 4003fd4:	e009883a 	mov	r4,fp
 4003fd8:	e0001115 	stw	zero,68(fp)
 4003fdc:	000b883a 	mov	r5,zero
 4003fe0:	40060640 	call	4006064 <_Balloc>
 4003fe4:	d8800715 	stw	r2,28(sp)
 4003fe8:	d8c00717 	ldw	r3,28(sp)
 4003fec:	00bfffc4 	movi	r2,-1
 4003ff0:	01000044 	movi	r4,1
 4003ff4:	d8800c15 	stw	r2,48(sp)
 4003ff8:	e0c01015 	stw	r3,64(fp)
 4003ffc:	d9000b15 	stw	r4,44(sp)
 4004000:	d8800615 	stw	r2,24(sp)
 4004004:	d8002215 	stw	zero,136(sp)
 4004008:	003c4106 	br	4003110 <__ram_exceptions_end+0xfbff2ee0>
 400400c:	d8c00c17 	ldw	r3,48(sp)
 4004010:	d8c00615 	stw	r3,24(sp)
 4004014:	003e7006 	br	40039d8 <__ram_exceptions_end+0xfbff37a8>
 4004018:	04400044 	movi	r17,1
 400401c:	003b2006 	br	4002ca0 <__ram_exceptions_end+0xfbff2a70>
 4004020:	000b883a 	mov	r5,zero
 4004024:	003b3d06 	br	4002d1c <__ram_exceptions_end+0xfbff2aec>
 4004028:	d8800c17 	ldw	r2,48(sp)
 400402c:	d8800615 	stw	r2,24(sp)
 4004030:	003e6906 	br	40039d8 <__ram_exceptions_end+0xfbff37a8>

04004034 <__sflush_r>:
 4004034:	2880030b 	ldhu	r2,12(r5)
 4004038:	defffb04 	addi	sp,sp,-20
 400403c:	dcc00315 	stw	r19,12(sp)
 4004040:	dc400115 	stw	r17,4(sp)
 4004044:	dfc00415 	stw	ra,16(sp)
 4004048:	dc800215 	stw	r18,8(sp)
 400404c:	dc000015 	stw	r16,0(sp)
 4004050:	10c0020c 	andi	r3,r2,8
 4004054:	2823883a 	mov	r17,r5
 4004058:	2027883a 	mov	r19,r4
 400405c:	1800311e 	bne	r3,zero,4004124 <__sflush_r+0xf0>
 4004060:	28c00117 	ldw	r3,4(r5)
 4004064:	10820014 	ori	r2,r2,2048
 4004068:	2880030d 	sth	r2,12(r5)
 400406c:	00c04b0e 	bge	zero,r3,400419c <__sflush_r+0x168>
 4004070:	8a000a17 	ldw	r8,40(r17)
 4004074:	40002326 	beq	r8,zero,4004104 <__sflush_r+0xd0>
 4004078:	9c000017 	ldw	r16,0(r19)
 400407c:	10c4000c 	andi	r3,r2,4096
 4004080:	98000015 	stw	zero,0(r19)
 4004084:	18004826 	beq	r3,zero,40041a8 <__sflush_r+0x174>
 4004088:	89801417 	ldw	r6,80(r17)
 400408c:	10c0010c 	andi	r3,r2,4
 4004090:	18000626 	beq	r3,zero,40040ac <__sflush_r+0x78>
 4004094:	88c00117 	ldw	r3,4(r17)
 4004098:	88800c17 	ldw	r2,48(r17)
 400409c:	30cdc83a 	sub	r6,r6,r3
 40040a0:	10000226 	beq	r2,zero,40040ac <__sflush_r+0x78>
 40040a4:	88800f17 	ldw	r2,60(r17)
 40040a8:	308dc83a 	sub	r6,r6,r2
 40040ac:	89400717 	ldw	r5,28(r17)
 40040b0:	000f883a 	mov	r7,zero
 40040b4:	9809883a 	mov	r4,r19
 40040b8:	403ee83a 	callr	r8
 40040bc:	00ffffc4 	movi	r3,-1
 40040c0:	10c04426 	beq	r2,r3,40041d4 <__sflush_r+0x1a0>
 40040c4:	88c0030b 	ldhu	r3,12(r17)
 40040c8:	89000417 	ldw	r4,16(r17)
 40040cc:	88000115 	stw	zero,4(r17)
 40040d0:	197dffcc 	andi	r5,r3,63487
 40040d4:	8940030d 	sth	r5,12(r17)
 40040d8:	89000015 	stw	r4,0(r17)
 40040dc:	18c4000c 	andi	r3,r3,4096
 40040e0:	18002c1e 	bne	r3,zero,4004194 <__sflush_r+0x160>
 40040e4:	89400c17 	ldw	r5,48(r17)
 40040e8:	9c000015 	stw	r16,0(r19)
 40040ec:	28000526 	beq	r5,zero,4004104 <__sflush_r+0xd0>
 40040f0:	88801004 	addi	r2,r17,64
 40040f4:	28800226 	beq	r5,r2,4004100 <__sflush_r+0xcc>
 40040f8:	9809883a 	mov	r4,r19
 40040fc:	40047b00 	call	40047b0 <_free_r>
 4004100:	88000c15 	stw	zero,48(r17)
 4004104:	0005883a 	mov	r2,zero
 4004108:	dfc00417 	ldw	ra,16(sp)
 400410c:	dcc00317 	ldw	r19,12(sp)
 4004110:	dc800217 	ldw	r18,8(sp)
 4004114:	dc400117 	ldw	r17,4(sp)
 4004118:	dc000017 	ldw	r16,0(sp)
 400411c:	dec00504 	addi	sp,sp,20
 4004120:	f800283a 	ret
 4004124:	2c800417 	ldw	r18,16(r5)
 4004128:	903ff626 	beq	r18,zero,4004104 <__ram_exceptions_end+0xfbff3ed4>
 400412c:	2c000017 	ldw	r16,0(r5)
 4004130:	108000cc 	andi	r2,r2,3
 4004134:	2c800015 	stw	r18,0(r5)
 4004138:	84a1c83a 	sub	r16,r16,r18
 400413c:	1000131e 	bne	r2,zero,400418c <__sflush_r+0x158>
 4004140:	28800517 	ldw	r2,20(r5)
 4004144:	88800215 	stw	r2,8(r17)
 4004148:	04000316 	blt	zero,r16,4004158 <__sflush_r+0x124>
 400414c:	003fed06 	br	4004104 <__ram_exceptions_end+0xfbff3ed4>
 4004150:	90a5883a 	add	r18,r18,r2
 4004154:	043feb0e 	bge	zero,r16,4004104 <__ram_exceptions_end+0xfbff3ed4>
 4004158:	88800917 	ldw	r2,36(r17)
 400415c:	89400717 	ldw	r5,28(r17)
 4004160:	800f883a 	mov	r7,r16
 4004164:	900d883a 	mov	r6,r18
 4004168:	9809883a 	mov	r4,r19
 400416c:	103ee83a 	callr	r2
 4004170:	80a1c83a 	sub	r16,r16,r2
 4004174:	00bff616 	blt	zero,r2,4004150 <__ram_exceptions_end+0xfbff3f20>
 4004178:	88c0030b 	ldhu	r3,12(r17)
 400417c:	00bfffc4 	movi	r2,-1
 4004180:	18c01014 	ori	r3,r3,64
 4004184:	88c0030d 	sth	r3,12(r17)
 4004188:	003fdf06 	br	4004108 <__ram_exceptions_end+0xfbff3ed8>
 400418c:	0005883a 	mov	r2,zero
 4004190:	003fec06 	br	4004144 <__ram_exceptions_end+0xfbff3f14>
 4004194:	88801415 	stw	r2,80(r17)
 4004198:	003fd206 	br	40040e4 <__ram_exceptions_end+0xfbff3eb4>
 400419c:	28c00f17 	ldw	r3,60(r5)
 40041a0:	00ffb316 	blt	zero,r3,4004070 <__ram_exceptions_end+0xfbff3e40>
 40041a4:	003fd706 	br	4004104 <__ram_exceptions_end+0xfbff3ed4>
 40041a8:	89400717 	ldw	r5,28(r17)
 40041ac:	000d883a 	mov	r6,zero
 40041b0:	01c00044 	movi	r7,1
 40041b4:	9809883a 	mov	r4,r19
 40041b8:	403ee83a 	callr	r8
 40041bc:	100d883a 	mov	r6,r2
 40041c0:	00bfffc4 	movi	r2,-1
 40041c4:	30801426 	beq	r6,r2,4004218 <__sflush_r+0x1e4>
 40041c8:	8880030b 	ldhu	r2,12(r17)
 40041cc:	8a000a17 	ldw	r8,40(r17)
 40041d0:	003fae06 	br	400408c <__ram_exceptions_end+0xfbff3e5c>
 40041d4:	98c00017 	ldw	r3,0(r19)
 40041d8:	183fba26 	beq	r3,zero,40040c4 <__ram_exceptions_end+0xfbff3e94>
 40041dc:	01000744 	movi	r4,29
 40041e0:	19000626 	beq	r3,r4,40041fc <__sflush_r+0x1c8>
 40041e4:	01000584 	movi	r4,22
 40041e8:	19000426 	beq	r3,r4,40041fc <__sflush_r+0x1c8>
 40041ec:	88c0030b 	ldhu	r3,12(r17)
 40041f0:	18c01014 	ori	r3,r3,64
 40041f4:	88c0030d 	sth	r3,12(r17)
 40041f8:	003fc306 	br	4004108 <__ram_exceptions_end+0xfbff3ed8>
 40041fc:	8880030b 	ldhu	r2,12(r17)
 4004200:	88c00417 	ldw	r3,16(r17)
 4004204:	88000115 	stw	zero,4(r17)
 4004208:	10bdffcc 	andi	r2,r2,63487
 400420c:	8880030d 	sth	r2,12(r17)
 4004210:	88c00015 	stw	r3,0(r17)
 4004214:	003fb306 	br	40040e4 <__ram_exceptions_end+0xfbff3eb4>
 4004218:	98800017 	ldw	r2,0(r19)
 400421c:	103fea26 	beq	r2,zero,40041c8 <__ram_exceptions_end+0xfbff3f98>
 4004220:	00c00744 	movi	r3,29
 4004224:	10c00226 	beq	r2,r3,4004230 <__sflush_r+0x1fc>
 4004228:	00c00584 	movi	r3,22
 400422c:	10c0031e 	bne	r2,r3,400423c <__sflush_r+0x208>
 4004230:	9c000015 	stw	r16,0(r19)
 4004234:	0005883a 	mov	r2,zero
 4004238:	003fb306 	br	4004108 <__ram_exceptions_end+0xfbff3ed8>
 400423c:	88c0030b 	ldhu	r3,12(r17)
 4004240:	3005883a 	mov	r2,r6
 4004244:	18c01014 	ori	r3,r3,64
 4004248:	88c0030d 	sth	r3,12(r17)
 400424c:	003fae06 	br	4004108 <__ram_exceptions_end+0xfbff3ed8>

04004250 <_fflush_r>:
 4004250:	defffd04 	addi	sp,sp,-12
 4004254:	dc000115 	stw	r16,4(sp)
 4004258:	dfc00215 	stw	ra,8(sp)
 400425c:	2021883a 	mov	r16,r4
 4004260:	20000226 	beq	r4,zero,400426c <_fflush_r+0x1c>
 4004264:	20800e17 	ldw	r2,56(r4)
 4004268:	10000c26 	beq	r2,zero,400429c <_fflush_r+0x4c>
 400426c:	2880030f 	ldh	r2,12(r5)
 4004270:	1000051e 	bne	r2,zero,4004288 <_fflush_r+0x38>
 4004274:	0005883a 	mov	r2,zero
 4004278:	dfc00217 	ldw	ra,8(sp)
 400427c:	dc000117 	ldw	r16,4(sp)
 4004280:	dec00304 	addi	sp,sp,12
 4004284:	f800283a 	ret
 4004288:	8009883a 	mov	r4,r16
 400428c:	dfc00217 	ldw	ra,8(sp)
 4004290:	dc000117 	ldw	r16,4(sp)
 4004294:	dec00304 	addi	sp,sp,12
 4004298:	40040341 	jmpi	4004034 <__sflush_r>
 400429c:	d9400015 	stw	r5,0(sp)
 40042a0:	400463c0 	call	400463c <__sinit>
 40042a4:	d9400017 	ldw	r5,0(sp)
 40042a8:	003ff006 	br	400426c <__ram_exceptions_end+0xfbff403c>

040042ac <fflush>:
 40042ac:	20000526 	beq	r4,zero,40042c4 <fflush+0x18>
 40042b0:	00810074 	movhi	r2,1025
 40042b4:	10851404 	addi	r2,r2,5200
 40042b8:	200b883a 	mov	r5,r4
 40042bc:	11000017 	ldw	r4,0(r2)
 40042c0:	40042501 	jmpi	4004250 <_fflush_r>
 40042c4:	00810074 	movhi	r2,1025
 40042c8:	10851304 	addi	r2,r2,5196
 40042cc:	11000017 	ldw	r4,0(r2)
 40042d0:	01410034 	movhi	r5,1024
 40042d4:	29509404 	addi	r5,r5,16976
 40042d8:	400504c1 	jmpi	400504c <_fwalk_reent>

040042dc <__fp_unlock>:
 40042dc:	0005883a 	mov	r2,zero
 40042e0:	f800283a 	ret

040042e4 <_cleanup_r>:
 40042e4:	01410074 	movhi	r5,1025
 40042e8:	29647a04 	addi	r5,r5,-28184
 40042ec:	400504c1 	jmpi	400504c <_fwalk_reent>

040042f0 <__sinit.part.1>:
 40042f0:	defff704 	addi	sp,sp,-36
 40042f4:	00c10034 	movhi	r3,1024
 40042f8:	dfc00815 	stw	ra,32(sp)
 40042fc:	ddc00715 	stw	r23,28(sp)
 4004300:	dd800615 	stw	r22,24(sp)
 4004304:	dd400515 	stw	r21,20(sp)
 4004308:	dd000415 	stw	r20,16(sp)
 400430c:	dcc00315 	stw	r19,12(sp)
 4004310:	dc800215 	stw	r18,8(sp)
 4004314:	dc400115 	stw	r17,4(sp)
 4004318:	dc000015 	stw	r16,0(sp)
 400431c:	18d0b904 	addi	r3,r3,17124
 4004320:	24000117 	ldw	r16,4(r4)
 4004324:	20c00f15 	stw	r3,60(r4)
 4004328:	2080bb04 	addi	r2,r4,748
 400432c:	00c000c4 	movi	r3,3
 4004330:	20c0b915 	stw	r3,740(r4)
 4004334:	2080ba15 	stw	r2,744(r4)
 4004338:	2000b815 	stw	zero,736(r4)
 400433c:	05c00204 	movi	r23,8
 4004340:	00800104 	movi	r2,4
 4004344:	2025883a 	mov	r18,r4
 4004348:	b80d883a 	mov	r6,r23
 400434c:	81001704 	addi	r4,r16,92
 4004350:	000b883a 	mov	r5,zero
 4004354:	80000015 	stw	zero,0(r16)
 4004358:	80000115 	stw	zero,4(r16)
 400435c:	80000215 	stw	zero,8(r16)
 4004360:	8080030d 	sth	r2,12(r16)
 4004364:	80001915 	stw	zero,100(r16)
 4004368:	8000038d 	sth	zero,14(r16)
 400436c:	80000415 	stw	zero,16(r16)
 4004370:	80000515 	stw	zero,20(r16)
 4004374:	80000615 	stw	zero,24(r16)
 4004378:	4005f3c0 	call	4005f3c <memset>
 400437c:	05810034 	movhi	r22,1024
 4004380:	94400217 	ldw	r17,8(r18)
 4004384:	05410034 	movhi	r21,1024
 4004388:	05010034 	movhi	r20,1024
 400438c:	04c10034 	movhi	r19,1024
 4004390:	b59dd204 	addi	r22,r22,30536
 4004394:	ad5de904 	addi	r21,r21,30628
 4004398:	a51e0804 	addi	r20,r20,30752
 400439c:	9cde1f04 	addi	r19,r19,30844
 40043a0:	85800815 	stw	r22,32(r16)
 40043a4:	85400915 	stw	r21,36(r16)
 40043a8:	85000a15 	stw	r20,40(r16)
 40043ac:	84c00b15 	stw	r19,44(r16)
 40043b0:	84000715 	stw	r16,28(r16)
 40043b4:	00800284 	movi	r2,10
 40043b8:	8880030d 	sth	r2,12(r17)
 40043bc:	00800044 	movi	r2,1
 40043c0:	b80d883a 	mov	r6,r23
 40043c4:	89001704 	addi	r4,r17,92
 40043c8:	000b883a 	mov	r5,zero
 40043cc:	88000015 	stw	zero,0(r17)
 40043d0:	88000115 	stw	zero,4(r17)
 40043d4:	88000215 	stw	zero,8(r17)
 40043d8:	88001915 	stw	zero,100(r17)
 40043dc:	8880038d 	sth	r2,14(r17)
 40043e0:	88000415 	stw	zero,16(r17)
 40043e4:	88000515 	stw	zero,20(r17)
 40043e8:	88000615 	stw	zero,24(r17)
 40043ec:	4005f3c0 	call	4005f3c <memset>
 40043f0:	94000317 	ldw	r16,12(r18)
 40043f4:	00800484 	movi	r2,18
 40043f8:	8c400715 	stw	r17,28(r17)
 40043fc:	8d800815 	stw	r22,32(r17)
 4004400:	8d400915 	stw	r21,36(r17)
 4004404:	8d000a15 	stw	r20,40(r17)
 4004408:	8cc00b15 	stw	r19,44(r17)
 400440c:	8080030d 	sth	r2,12(r16)
 4004410:	00800084 	movi	r2,2
 4004414:	80000015 	stw	zero,0(r16)
 4004418:	80000115 	stw	zero,4(r16)
 400441c:	80000215 	stw	zero,8(r16)
 4004420:	80001915 	stw	zero,100(r16)
 4004424:	8080038d 	sth	r2,14(r16)
 4004428:	80000415 	stw	zero,16(r16)
 400442c:	80000515 	stw	zero,20(r16)
 4004430:	80000615 	stw	zero,24(r16)
 4004434:	b80d883a 	mov	r6,r23
 4004438:	000b883a 	mov	r5,zero
 400443c:	81001704 	addi	r4,r16,92
 4004440:	4005f3c0 	call	4005f3c <memset>
 4004444:	00800044 	movi	r2,1
 4004448:	84000715 	stw	r16,28(r16)
 400444c:	85800815 	stw	r22,32(r16)
 4004450:	85400915 	stw	r21,36(r16)
 4004454:	85000a15 	stw	r20,40(r16)
 4004458:	84c00b15 	stw	r19,44(r16)
 400445c:	90800e15 	stw	r2,56(r18)
 4004460:	dfc00817 	ldw	ra,32(sp)
 4004464:	ddc00717 	ldw	r23,28(sp)
 4004468:	dd800617 	ldw	r22,24(sp)
 400446c:	dd400517 	ldw	r21,20(sp)
 4004470:	dd000417 	ldw	r20,16(sp)
 4004474:	dcc00317 	ldw	r19,12(sp)
 4004478:	dc800217 	ldw	r18,8(sp)
 400447c:	dc400117 	ldw	r17,4(sp)
 4004480:	dc000017 	ldw	r16,0(sp)
 4004484:	dec00904 	addi	sp,sp,36
 4004488:	f800283a 	ret

0400448c <__fp_lock>:
 400448c:	0005883a 	mov	r2,zero
 4004490:	f800283a 	ret

04004494 <__sfmoreglue>:
 4004494:	defffc04 	addi	sp,sp,-16
 4004498:	dc800215 	stw	r18,8(sp)
 400449c:	2825883a 	mov	r18,r5
 40044a0:	dc000015 	stw	r16,0(sp)
 40044a4:	01401a04 	movi	r5,104
 40044a8:	2021883a 	mov	r16,r4
 40044ac:	913fffc4 	addi	r4,r18,-1
 40044b0:	dfc00315 	stw	ra,12(sp)
 40044b4:	dc400115 	stw	r17,4(sp)
 40044b8:	400a7180 	call	400a718 <__mulsi3>
 40044bc:	8009883a 	mov	r4,r16
 40044c0:	11401d04 	addi	r5,r2,116
 40044c4:	1023883a 	mov	r17,r2
 40044c8:	40053a80 	call	40053a8 <_malloc_r>
 40044cc:	1021883a 	mov	r16,r2
 40044d0:	10000726 	beq	r2,zero,40044f0 <__sfmoreglue+0x5c>
 40044d4:	11000304 	addi	r4,r2,12
 40044d8:	10000015 	stw	zero,0(r2)
 40044dc:	14800115 	stw	r18,4(r2)
 40044e0:	11000215 	stw	r4,8(r2)
 40044e4:	89801a04 	addi	r6,r17,104
 40044e8:	000b883a 	mov	r5,zero
 40044ec:	4005f3c0 	call	4005f3c <memset>
 40044f0:	8005883a 	mov	r2,r16
 40044f4:	dfc00317 	ldw	ra,12(sp)
 40044f8:	dc800217 	ldw	r18,8(sp)
 40044fc:	dc400117 	ldw	r17,4(sp)
 4004500:	dc000017 	ldw	r16,0(sp)
 4004504:	dec00404 	addi	sp,sp,16
 4004508:	f800283a 	ret

0400450c <__sfp>:
 400450c:	defffb04 	addi	sp,sp,-20
 4004510:	dc000015 	stw	r16,0(sp)
 4004514:	04010074 	movhi	r16,1025
 4004518:	84051304 	addi	r16,r16,5196
 400451c:	dcc00315 	stw	r19,12(sp)
 4004520:	2027883a 	mov	r19,r4
 4004524:	81000017 	ldw	r4,0(r16)
 4004528:	dfc00415 	stw	ra,16(sp)
 400452c:	dc800215 	stw	r18,8(sp)
 4004530:	20800e17 	ldw	r2,56(r4)
 4004534:	dc400115 	stw	r17,4(sp)
 4004538:	1000021e 	bne	r2,zero,4004544 <__sfp+0x38>
 400453c:	40042f00 	call	40042f0 <__sinit.part.1>
 4004540:	81000017 	ldw	r4,0(r16)
 4004544:	2480b804 	addi	r18,r4,736
 4004548:	047fffc4 	movi	r17,-1
 400454c:	91000117 	ldw	r4,4(r18)
 4004550:	94000217 	ldw	r16,8(r18)
 4004554:	213fffc4 	addi	r4,r4,-1
 4004558:	20000a16 	blt	r4,zero,4004584 <__sfp+0x78>
 400455c:	8080030f 	ldh	r2,12(r16)
 4004560:	10000c26 	beq	r2,zero,4004594 <__sfp+0x88>
 4004564:	80c01d04 	addi	r3,r16,116
 4004568:	00000206 	br	4004574 <__sfp+0x68>
 400456c:	18bfe60f 	ldh	r2,-104(r3)
 4004570:	10000826 	beq	r2,zero,4004594 <__sfp+0x88>
 4004574:	213fffc4 	addi	r4,r4,-1
 4004578:	1c3ffd04 	addi	r16,r3,-12
 400457c:	18c01a04 	addi	r3,r3,104
 4004580:	247ffa1e 	bne	r4,r17,400456c <__ram_exceptions_end+0xfbff433c>
 4004584:	90800017 	ldw	r2,0(r18)
 4004588:	10001d26 	beq	r2,zero,4004600 <__sfp+0xf4>
 400458c:	1025883a 	mov	r18,r2
 4004590:	003fee06 	br	400454c <__ram_exceptions_end+0xfbff431c>
 4004594:	00bfffc4 	movi	r2,-1
 4004598:	8080038d 	sth	r2,14(r16)
 400459c:	00800044 	movi	r2,1
 40045a0:	8080030d 	sth	r2,12(r16)
 40045a4:	80001915 	stw	zero,100(r16)
 40045a8:	80000015 	stw	zero,0(r16)
 40045ac:	80000215 	stw	zero,8(r16)
 40045b0:	80000115 	stw	zero,4(r16)
 40045b4:	80000415 	stw	zero,16(r16)
 40045b8:	80000515 	stw	zero,20(r16)
 40045bc:	80000615 	stw	zero,24(r16)
 40045c0:	01800204 	movi	r6,8
 40045c4:	000b883a 	mov	r5,zero
 40045c8:	81001704 	addi	r4,r16,92
 40045cc:	4005f3c0 	call	4005f3c <memset>
 40045d0:	8005883a 	mov	r2,r16
 40045d4:	80000c15 	stw	zero,48(r16)
 40045d8:	80000d15 	stw	zero,52(r16)
 40045dc:	80001115 	stw	zero,68(r16)
 40045e0:	80001215 	stw	zero,72(r16)
 40045e4:	dfc00417 	ldw	ra,16(sp)
 40045e8:	dcc00317 	ldw	r19,12(sp)
 40045ec:	dc800217 	ldw	r18,8(sp)
 40045f0:	dc400117 	ldw	r17,4(sp)
 40045f4:	dc000017 	ldw	r16,0(sp)
 40045f8:	dec00504 	addi	sp,sp,20
 40045fc:	f800283a 	ret
 4004600:	01400104 	movi	r5,4
 4004604:	9809883a 	mov	r4,r19
 4004608:	40044940 	call	4004494 <__sfmoreglue>
 400460c:	90800015 	stw	r2,0(r18)
 4004610:	103fde1e 	bne	r2,zero,400458c <__ram_exceptions_end+0xfbff435c>
 4004614:	00800304 	movi	r2,12
 4004618:	98800015 	stw	r2,0(r19)
 400461c:	0005883a 	mov	r2,zero
 4004620:	003ff006 	br	40045e4 <__ram_exceptions_end+0xfbff43b4>

04004624 <_cleanup>:
 4004624:	00810074 	movhi	r2,1025
 4004628:	10851304 	addi	r2,r2,5196
 400462c:	11000017 	ldw	r4,0(r2)
 4004630:	01410074 	movhi	r5,1025
 4004634:	29647a04 	addi	r5,r5,-28184
 4004638:	400504c1 	jmpi	400504c <_fwalk_reent>

0400463c <__sinit>:
 400463c:	20800e17 	ldw	r2,56(r4)
 4004640:	10000126 	beq	r2,zero,4004648 <__sinit+0xc>
 4004644:	f800283a 	ret
 4004648:	40042f01 	jmpi	40042f0 <__sinit.part.1>

0400464c <__sfp_lock_acquire>:
 400464c:	f800283a 	ret

04004650 <__sfp_lock_release>:
 4004650:	f800283a 	ret

04004654 <__sinit_lock_acquire>:
 4004654:	f800283a 	ret

04004658 <__sinit_lock_release>:
 4004658:	f800283a 	ret

0400465c <__fp_lock_all>:
 400465c:	00810074 	movhi	r2,1025
 4004660:	10851404 	addi	r2,r2,5200
 4004664:	11000017 	ldw	r4,0(r2)
 4004668:	01410034 	movhi	r5,1024
 400466c:	29512304 	addi	r5,r5,17548
 4004670:	4004f881 	jmpi	4004f88 <_fwalk>

04004674 <__fp_unlock_all>:
 4004674:	00810074 	movhi	r2,1025
 4004678:	10851404 	addi	r2,r2,5200
 400467c:	11000017 	ldw	r4,0(r2)
 4004680:	01410034 	movhi	r5,1024
 4004684:	2950b704 	addi	r5,r5,17116
 4004688:	4004f881 	jmpi	4004f88 <_fwalk>

0400468c <_malloc_trim_r>:
 400468c:	defffb04 	addi	sp,sp,-20
 4004690:	dcc00315 	stw	r19,12(sp)
 4004694:	04c10074 	movhi	r19,1025
 4004698:	dc800215 	stw	r18,8(sp)
 400469c:	dc400115 	stw	r17,4(sp)
 40046a0:	dc000015 	stw	r16,0(sp)
 40046a4:	dfc00415 	stw	ra,16(sp)
 40046a8:	2821883a 	mov	r16,r5
 40046ac:	9cff8e04 	addi	r19,r19,-456
 40046b0:	2025883a 	mov	r18,r4
 40046b4:	400d5800 	call	400d580 <__malloc_lock>
 40046b8:	98800217 	ldw	r2,8(r19)
 40046bc:	14400117 	ldw	r17,4(r2)
 40046c0:	00bfff04 	movi	r2,-4
 40046c4:	88a2703a 	and	r17,r17,r2
 40046c8:	8c21c83a 	sub	r16,r17,r16
 40046cc:	8403fbc4 	addi	r16,r16,4079
 40046d0:	8020d33a 	srli	r16,r16,12
 40046d4:	0083ffc4 	movi	r2,4095
 40046d8:	843fffc4 	addi	r16,r16,-1
 40046dc:	8020933a 	slli	r16,r16,12
 40046e0:	1400060e 	bge	r2,r16,40046fc <_malloc_trim_r+0x70>
 40046e4:	000b883a 	mov	r5,zero
 40046e8:	9009883a 	mov	r4,r18
 40046ec:	40076f40 	call	40076f4 <_sbrk_r>
 40046f0:	98c00217 	ldw	r3,8(r19)
 40046f4:	1c47883a 	add	r3,r3,r17
 40046f8:	10c00a26 	beq	r2,r3,4004724 <_malloc_trim_r+0x98>
 40046fc:	9009883a 	mov	r4,r18
 4004700:	400d5a40 	call	400d5a4 <__malloc_unlock>
 4004704:	0005883a 	mov	r2,zero
 4004708:	dfc00417 	ldw	ra,16(sp)
 400470c:	dcc00317 	ldw	r19,12(sp)
 4004710:	dc800217 	ldw	r18,8(sp)
 4004714:	dc400117 	ldw	r17,4(sp)
 4004718:	dc000017 	ldw	r16,0(sp)
 400471c:	dec00504 	addi	sp,sp,20
 4004720:	f800283a 	ret
 4004724:	040bc83a 	sub	r5,zero,r16
 4004728:	9009883a 	mov	r4,r18
 400472c:	40076f40 	call	40076f4 <_sbrk_r>
 4004730:	00ffffc4 	movi	r3,-1
 4004734:	10c00d26 	beq	r2,r3,400476c <_malloc_trim_r+0xe0>
 4004738:	00c10074 	movhi	r3,1025
 400473c:	18cbed04 	addi	r3,r3,12212
 4004740:	18800017 	ldw	r2,0(r3)
 4004744:	99000217 	ldw	r4,8(r19)
 4004748:	8c23c83a 	sub	r17,r17,r16
 400474c:	8c400054 	ori	r17,r17,1
 4004750:	1421c83a 	sub	r16,r2,r16
 4004754:	24400115 	stw	r17,4(r4)
 4004758:	9009883a 	mov	r4,r18
 400475c:	1c000015 	stw	r16,0(r3)
 4004760:	400d5a40 	call	400d5a4 <__malloc_unlock>
 4004764:	00800044 	movi	r2,1
 4004768:	003fe706 	br	4004708 <__ram_exceptions_end+0xfbff44d8>
 400476c:	000b883a 	mov	r5,zero
 4004770:	9009883a 	mov	r4,r18
 4004774:	40076f40 	call	40076f4 <_sbrk_r>
 4004778:	99000217 	ldw	r4,8(r19)
 400477c:	014003c4 	movi	r5,15
 4004780:	1107c83a 	sub	r3,r2,r4
 4004784:	28ffdd0e 	bge	r5,r3,40046fc <__ram_exceptions_end+0xfbff44cc>
 4004788:	01410074 	movhi	r5,1025
 400478c:	29451604 	addi	r5,r5,5208
 4004790:	29400017 	ldw	r5,0(r5)
 4004794:	18c00054 	ori	r3,r3,1
 4004798:	20c00115 	stw	r3,4(r4)
 400479c:	00c10074 	movhi	r3,1025
 40047a0:	1145c83a 	sub	r2,r2,r5
 40047a4:	18cbed04 	addi	r3,r3,12212
 40047a8:	18800015 	stw	r2,0(r3)
 40047ac:	003fd306 	br	40046fc <__ram_exceptions_end+0xfbff44cc>

040047b0 <_free_r>:
 40047b0:	28004126 	beq	r5,zero,40048b8 <_free_r+0x108>
 40047b4:	defffd04 	addi	sp,sp,-12
 40047b8:	dc400115 	stw	r17,4(sp)
 40047bc:	dc000015 	stw	r16,0(sp)
 40047c0:	2023883a 	mov	r17,r4
 40047c4:	2821883a 	mov	r16,r5
 40047c8:	dfc00215 	stw	ra,8(sp)
 40047cc:	400d5800 	call	400d580 <__malloc_lock>
 40047d0:	81ffff17 	ldw	r7,-4(r16)
 40047d4:	00bfff84 	movi	r2,-2
 40047d8:	01010074 	movhi	r4,1025
 40047dc:	81bffe04 	addi	r6,r16,-8
 40047e0:	3884703a 	and	r2,r7,r2
 40047e4:	213f8e04 	addi	r4,r4,-456
 40047e8:	308b883a 	add	r5,r6,r2
 40047ec:	2a400117 	ldw	r9,4(r5)
 40047f0:	22000217 	ldw	r8,8(r4)
 40047f4:	00ffff04 	movi	r3,-4
 40047f8:	48c6703a 	and	r3,r9,r3
 40047fc:	2a005726 	beq	r5,r8,400495c <_free_r+0x1ac>
 4004800:	28c00115 	stw	r3,4(r5)
 4004804:	39c0004c 	andi	r7,r7,1
 4004808:	3800091e 	bne	r7,zero,4004830 <_free_r+0x80>
 400480c:	823ffe17 	ldw	r8,-8(r16)
 4004810:	22400204 	addi	r9,r4,8
 4004814:	320dc83a 	sub	r6,r6,r8
 4004818:	31c00217 	ldw	r7,8(r6)
 400481c:	1205883a 	add	r2,r2,r8
 4004820:	3a406526 	beq	r7,r9,40049b8 <_free_r+0x208>
 4004824:	32000317 	ldw	r8,12(r6)
 4004828:	3a000315 	stw	r8,12(r7)
 400482c:	41c00215 	stw	r7,8(r8)
 4004830:	28cf883a 	add	r7,r5,r3
 4004834:	39c00117 	ldw	r7,4(r7)
 4004838:	39c0004c 	andi	r7,r7,1
 400483c:	38003a26 	beq	r7,zero,4004928 <_free_r+0x178>
 4004840:	10c00054 	ori	r3,r2,1
 4004844:	30c00115 	stw	r3,4(r6)
 4004848:	3087883a 	add	r3,r6,r2
 400484c:	18800015 	stw	r2,0(r3)
 4004850:	00c07fc4 	movi	r3,511
 4004854:	18801936 	bltu	r3,r2,40048bc <_free_r+0x10c>
 4004858:	1004d0fa 	srli	r2,r2,3
 400485c:	01c00044 	movi	r7,1
 4004860:	21400117 	ldw	r5,4(r4)
 4004864:	10c00044 	addi	r3,r2,1
 4004868:	18c7883a 	add	r3,r3,r3
 400486c:	1005d0ba 	srai	r2,r2,2
 4004870:	18c7883a 	add	r3,r3,r3
 4004874:	18c7883a 	add	r3,r3,r3
 4004878:	1907883a 	add	r3,r3,r4
 400487c:	3884983a 	sll	r2,r7,r2
 4004880:	19c00017 	ldw	r7,0(r3)
 4004884:	1a3ffe04 	addi	r8,r3,-8
 4004888:	1144b03a 	or	r2,r2,r5
 400488c:	32000315 	stw	r8,12(r6)
 4004890:	31c00215 	stw	r7,8(r6)
 4004894:	20800115 	stw	r2,4(r4)
 4004898:	19800015 	stw	r6,0(r3)
 400489c:	39800315 	stw	r6,12(r7)
 40048a0:	8809883a 	mov	r4,r17
 40048a4:	dfc00217 	ldw	ra,8(sp)
 40048a8:	dc400117 	ldw	r17,4(sp)
 40048ac:	dc000017 	ldw	r16,0(sp)
 40048b0:	dec00304 	addi	sp,sp,12
 40048b4:	400d5a41 	jmpi	400d5a4 <__malloc_unlock>
 40048b8:	f800283a 	ret
 40048bc:	100ad27a 	srli	r5,r2,9
 40048c0:	00c00104 	movi	r3,4
 40048c4:	19404a36 	bltu	r3,r5,40049f0 <_free_r+0x240>
 40048c8:	100ad1ba 	srli	r5,r2,6
 40048cc:	28c00e44 	addi	r3,r5,57
 40048d0:	18c7883a 	add	r3,r3,r3
 40048d4:	29400e04 	addi	r5,r5,56
 40048d8:	18c7883a 	add	r3,r3,r3
 40048dc:	18c7883a 	add	r3,r3,r3
 40048e0:	1909883a 	add	r4,r3,r4
 40048e4:	20c00017 	ldw	r3,0(r4)
 40048e8:	01c10074 	movhi	r7,1025
 40048ec:	213ffe04 	addi	r4,r4,-8
 40048f0:	39ff8e04 	addi	r7,r7,-456
 40048f4:	20c04426 	beq	r4,r3,4004a08 <_free_r+0x258>
 40048f8:	01ffff04 	movi	r7,-4
 40048fc:	19400117 	ldw	r5,4(r3)
 4004900:	29ca703a 	and	r5,r5,r7
 4004904:	1140022e 	bgeu	r2,r5,4004910 <_free_r+0x160>
 4004908:	18c00217 	ldw	r3,8(r3)
 400490c:	20fffb1e 	bne	r4,r3,40048fc <__ram_exceptions_end+0xfbff46cc>
 4004910:	19000317 	ldw	r4,12(r3)
 4004914:	31000315 	stw	r4,12(r6)
 4004918:	30c00215 	stw	r3,8(r6)
 400491c:	21800215 	stw	r6,8(r4)
 4004920:	19800315 	stw	r6,12(r3)
 4004924:	003fde06 	br	40048a0 <__ram_exceptions_end+0xfbff4670>
 4004928:	29c00217 	ldw	r7,8(r5)
 400492c:	10c5883a 	add	r2,r2,r3
 4004930:	00c10074 	movhi	r3,1025
 4004934:	18ff9004 	addi	r3,r3,-448
 4004938:	38c03b26 	beq	r7,r3,4004a28 <_free_r+0x278>
 400493c:	2a000317 	ldw	r8,12(r5)
 4004940:	11400054 	ori	r5,r2,1
 4004944:	3087883a 	add	r3,r6,r2
 4004948:	3a000315 	stw	r8,12(r7)
 400494c:	41c00215 	stw	r7,8(r8)
 4004950:	31400115 	stw	r5,4(r6)
 4004954:	18800015 	stw	r2,0(r3)
 4004958:	003fbd06 	br	4004850 <__ram_exceptions_end+0xfbff4620>
 400495c:	39c0004c 	andi	r7,r7,1
 4004960:	10c5883a 	add	r2,r2,r3
 4004964:	3800071e 	bne	r7,zero,4004984 <_free_r+0x1d4>
 4004968:	81fffe17 	ldw	r7,-8(r16)
 400496c:	31cdc83a 	sub	r6,r6,r7
 4004970:	30c00317 	ldw	r3,12(r6)
 4004974:	31400217 	ldw	r5,8(r6)
 4004978:	11c5883a 	add	r2,r2,r7
 400497c:	28c00315 	stw	r3,12(r5)
 4004980:	19400215 	stw	r5,8(r3)
 4004984:	10c00054 	ori	r3,r2,1
 4004988:	30c00115 	stw	r3,4(r6)
 400498c:	00c10074 	movhi	r3,1025
 4004990:	18c51704 	addi	r3,r3,5212
 4004994:	18c00017 	ldw	r3,0(r3)
 4004998:	21800215 	stw	r6,8(r4)
 400499c:	10ffc036 	bltu	r2,r3,40048a0 <__ram_exceptions_end+0xfbff4670>
 40049a0:	00810074 	movhi	r2,1025
 40049a4:	108be404 	addi	r2,r2,12176
 40049a8:	11400017 	ldw	r5,0(r2)
 40049ac:	8809883a 	mov	r4,r17
 40049b0:	400468c0 	call	400468c <_malloc_trim_r>
 40049b4:	003fba06 	br	40048a0 <__ram_exceptions_end+0xfbff4670>
 40049b8:	28c9883a 	add	r4,r5,r3
 40049bc:	21000117 	ldw	r4,4(r4)
 40049c0:	2100004c 	andi	r4,r4,1
 40049c4:	2000391e 	bne	r4,zero,4004aac <_free_r+0x2fc>
 40049c8:	29c00217 	ldw	r7,8(r5)
 40049cc:	29000317 	ldw	r4,12(r5)
 40049d0:	1885883a 	add	r2,r3,r2
 40049d4:	10c00054 	ori	r3,r2,1
 40049d8:	39000315 	stw	r4,12(r7)
 40049dc:	21c00215 	stw	r7,8(r4)
 40049e0:	30c00115 	stw	r3,4(r6)
 40049e4:	308d883a 	add	r6,r6,r2
 40049e8:	30800015 	stw	r2,0(r6)
 40049ec:	003fac06 	br	40048a0 <__ram_exceptions_end+0xfbff4670>
 40049f0:	00c00504 	movi	r3,20
 40049f4:	19401536 	bltu	r3,r5,4004a4c <_free_r+0x29c>
 40049f8:	28c01704 	addi	r3,r5,92
 40049fc:	18c7883a 	add	r3,r3,r3
 4004a00:	294016c4 	addi	r5,r5,91
 4004a04:	003fb406 	br	40048d8 <__ram_exceptions_end+0xfbff46a8>
 4004a08:	280bd0ba 	srai	r5,r5,2
 4004a0c:	00c00044 	movi	r3,1
 4004a10:	38800117 	ldw	r2,4(r7)
 4004a14:	194a983a 	sll	r5,r3,r5
 4004a18:	2007883a 	mov	r3,r4
 4004a1c:	2884b03a 	or	r2,r5,r2
 4004a20:	38800115 	stw	r2,4(r7)
 4004a24:	003fbb06 	br	4004914 <__ram_exceptions_end+0xfbff46e4>
 4004a28:	21800515 	stw	r6,20(r4)
 4004a2c:	21800415 	stw	r6,16(r4)
 4004a30:	10c00054 	ori	r3,r2,1
 4004a34:	31c00315 	stw	r7,12(r6)
 4004a38:	31c00215 	stw	r7,8(r6)
 4004a3c:	30c00115 	stw	r3,4(r6)
 4004a40:	308d883a 	add	r6,r6,r2
 4004a44:	30800015 	stw	r2,0(r6)
 4004a48:	003f9506 	br	40048a0 <__ram_exceptions_end+0xfbff4670>
 4004a4c:	00c01504 	movi	r3,84
 4004a50:	19400536 	bltu	r3,r5,4004a68 <_free_r+0x2b8>
 4004a54:	100ad33a 	srli	r5,r2,12
 4004a58:	28c01bc4 	addi	r3,r5,111
 4004a5c:	18c7883a 	add	r3,r3,r3
 4004a60:	29401b84 	addi	r5,r5,110
 4004a64:	003f9c06 	br	40048d8 <__ram_exceptions_end+0xfbff46a8>
 4004a68:	00c05504 	movi	r3,340
 4004a6c:	19400536 	bltu	r3,r5,4004a84 <_free_r+0x2d4>
 4004a70:	100ad3fa 	srli	r5,r2,15
 4004a74:	28c01e04 	addi	r3,r5,120
 4004a78:	18c7883a 	add	r3,r3,r3
 4004a7c:	29401dc4 	addi	r5,r5,119
 4004a80:	003f9506 	br	40048d8 <__ram_exceptions_end+0xfbff46a8>
 4004a84:	00c15504 	movi	r3,1364
 4004a88:	19400536 	bltu	r3,r5,4004aa0 <_free_r+0x2f0>
 4004a8c:	100ad4ba 	srli	r5,r2,18
 4004a90:	28c01f44 	addi	r3,r5,125
 4004a94:	18c7883a 	add	r3,r3,r3
 4004a98:	29401f04 	addi	r5,r5,124
 4004a9c:	003f8e06 	br	40048d8 <__ram_exceptions_end+0xfbff46a8>
 4004aa0:	00c03f84 	movi	r3,254
 4004aa4:	01401f84 	movi	r5,126
 4004aa8:	003f8b06 	br	40048d8 <__ram_exceptions_end+0xfbff46a8>
 4004aac:	10c00054 	ori	r3,r2,1
 4004ab0:	30c00115 	stw	r3,4(r6)
 4004ab4:	308d883a 	add	r6,r6,r2
 4004ab8:	30800015 	stw	r2,0(r6)
 4004abc:	003f7806 	br	40048a0 <__ram_exceptions_end+0xfbff4670>

04004ac0 <__sfvwrite_r>:
 4004ac0:	30800217 	ldw	r2,8(r6)
 4004ac4:	10006726 	beq	r2,zero,4004c64 <__sfvwrite_r+0x1a4>
 4004ac8:	28c0030b 	ldhu	r3,12(r5)
 4004acc:	defff404 	addi	sp,sp,-48
 4004ad0:	dd400715 	stw	r21,28(sp)
 4004ad4:	dd000615 	stw	r20,24(sp)
 4004ad8:	dc000215 	stw	r16,8(sp)
 4004adc:	dfc00b15 	stw	ra,44(sp)
 4004ae0:	df000a15 	stw	fp,40(sp)
 4004ae4:	ddc00915 	stw	r23,36(sp)
 4004ae8:	dd800815 	stw	r22,32(sp)
 4004aec:	dcc00515 	stw	r19,20(sp)
 4004af0:	dc800415 	stw	r18,16(sp)
 4004af4:	dc400315 	stw	r17,12(sp)
 4004af8:	1880020c 	andi	r2,r3,8
 4004afc:	2821883a 	mov	r16,r5
 4004b00:	202b883a 	mov	r21,r4
 4004b04:	3029883a 	mov	r20,r6
 4004b08:	10002726 	beq	r2,zero,4004ba8 <__sfvwrite_r+0xe8>
 4004b0c:	28800417 	ldw	r2,16(r5)
 4004b10:	10002526 	beq	r2,zero,4004ba8 <__sfvwrite_r+0xe8>
 4004b14:	1880008c 	andi	r2,r3,2
 4004b18:	a4400017 	ldw	r17,0(r20)
 4004b1c:	10002a26 	beq	r2,zero,4004bc8 <__sfvwrite_r+0x108>
 4004b20:	05a00034 	movhi	r22,32768
 4004b24:	0027883a 	mov	r19,zero
 4004b28:	0025883a 	mov	r18,zero
 4004b2c:	b5bf0004 	addi	r22,r22,-1024
 4004b30:	980d883a 	mov	r6,r19
 4004b34:	a809883a 	mov	r4,r21
 4004b38:	90004626 	beq	r18,zero,4004c54 <__sfvwrite_r+0x194>
 4004b3c:	900f883a 	mov	r7,r18
 4004b40:	b480022e 	bgeu	r22,r18,4004b4c <__sfvwrite_r+0x8c>
 4004b44:	01e00034 	movhi	r7,32768
 4004b48:	39ff0004 	addi	r7,r7,-1024
 4004b4c:	80800917 	ldw	r2,36(r16)
 4004b50:	81400717 	ldw	r5,28(r16)
 4004b54:	103ee83a 	callr	r2
 4004b58:	00805a0e 	bge	zero,r2,4004cc4 <__sfvwrite_r+0x204>
 4004b5c:	a0c00217 	ldw	r3,8(r20)
 4004b60:	98a7883a 	add	r19,r19,r2
 4004b64:	90a5c83a 	sub	r18,r18,r2
 4004b68:	1885c83a 	sub	r2,r3,r2
 4004b6c:	a0800215 	stw	r2,8(r20)
 4004b70:	103fef1e 	bne	r2,zero,4004b30 <__ram_exceptions_end+0xfbff4900>
 4004b74:	0005883a 	mov	r2,zero
 4004b78:	dfc00b17 	ldw	ra,44(sp)
 4004b7c:	df000a17 	ldw	fp,40(sp)
 4004b80:	ddc00917 	ldw	r23,36(sp)
 4004b84:	dd800817 	ldw	r22,32(sp)
 4004b88:	dd400717 	ldw	r21,28(sp)
 4004b8c:	dd000617 	ldw	r20,24(sp)
 4004b90:	dcc00517 	ldw	r19,20(sp)
 4004b94:	dc800417 	ldw	r18,16(sp)
 4004b98:	dc400317 	ldw	r17,12(sp)
 4004b9c:	dc000217 	ldw	r16,8(sp)
 4004ba0:	dec00c04 	addi	sp,sp,48
 4004ba4:	f800283a 	ret
 4004ba8:	800b883a 	mov	r5,r16
 4004bac:	a809883a 	mov	r4,r21
 4004bb0:	40026300 	call	4002630 <__swsetup_r>
 4004bb4:	1000ee1e 	bne	r2,zero,4004f70 <__sfvwrite_r+0x4b0>
 4004bb8:	80c0030b 	ldhu	r3,12(r16)
 4004bbc:	a4400017 	ldw	r17,0(r20)
 4004bc0:	1880008c 	andi	r2,r3,2
 4004bc4:	103fd61e 	bne	r2,zero,4004b20 <__ram_exceptions_end+0xfbff48f0>
 4004bc8:	1880004c 	andi	r2,r3,1
 4004bcc:	1000421e 	bne	r2,zero,4004cd8 <__sfvwrite_r+0x218>
 4004bd0:	0039883a 	mov	fp,zero
 4004bd4:	0025883a 	mov	r18,zero
 4004bd8:	90001a26 	beq	r18,zero,4004c44 <__sfvwrite_r+0x184>
 4004bdc:	1880800c 	andi	r2,r3,512
 4004be0:	84c00217 	ldw	r19,8(r16)
 4004be4:	10002126 	beq	r2,zero,4004c6c <__sfvwrite_r+0x1ac>
 4004be8:	982f883a 	mov	r23,r19
 4004bec:	94c09636 	bltu	r18,r19,4004e48 <__sfvwrite_r+0x388>
 4004bf0:	1881200c 	andi	r2,r3,1152
 4004bf4:	1000a11e 	bne	r2,zero,4004e7c <__sfvwrite_r+0x3bc>
 4004bf8:	81000017 	ldw	r4,0(r16)
 4004bfc:	b80d883a 	mov	r6,r23
 4004c00:	e00b883a 	mov	r5,fp
 4004c04:	4005de00 	call	4005de0 <memmove>
 4004c08:	80c00217 	ldw	r3,8(r16)
 4004c0c:	81000017 	ldw	r4,0(r16)
 4004c10:	9005883a 	mov	r2,r18
 4004c14:	1ce7c83a 	sub	r19,r3,r19
 4004c18:	25cf883a 	add	r7,r4,r23
 4004c1c:	84c00215 	stw	r19,8(r16)
 4004c20:	81c00015 	stw	r7,0(r16)
 4004c24:	a0c00217 	ldw	r3,8(r20)
 4004c28:	e0b9883a 	add	fp,fp,r2
 4004c2c:	90a5c83a 	sub	r18,r18,r2
 4004c30:	18a7c83a 	sub	r19,r3,r2
 4004c34:	a4c00215 	stw	r19,8(r20)
 4004c38:	983fce26 	beq	r19,zero,4004b74 <__ram_exceptions_end+0xfbff4944>
 4004c3c:	80c0030b 	ldhu	r3,12(r16)
 4004c40:	903fe61e 	bne	r18,zero,4004bdc <__ram_exceptions_end+0xfbff49ac>
 4004c44:	8f000017 	ldw	fp,0(r17)
 4004c48:	8c800117 	ldw	r18,4(r17)
 4004c4c:	8c400204 	addi	r17,r17,8
 4004c50:	003fe106 	br	4004bd8 <__ram_exceptions_end+0xfbff49a8>
 4004c54:	8cc00017 	ldw	r19,0(r17)
 4004c58:	8c800117 	ldw	r18,4(r17)
 4004c5c:	8c400204 	addi	r17,r17,8
 4004c60:	003fb306 	br	4004b30 <__ram_exceptions_end+0xfbff4900>
 4004c64:	0005883a 	mov	r2,zero
 4004c68:	f800283a 	ret
 4004c6c:	81000017 	ldw	r4,0(r16)
 4004c70:	80800417 	ldw	r2,16(r16)
 4004c74:	11005a36 	bltu	r2,r4,4004de0 <__sfvwrite_r+0x320>
 4004c78:	85c00517 	ldw	r23,20(r16)
 4004c7c:	95c05836 	bltu	r18,r23,4004de0 <__sfvwrite_r+0x320>
 4004c80:	00a00034 	movhi	r2,32768
 4004c84:	10bfffc4 	addi	r2,r2,-1
 4004c88:	9009883a 	mov	r4,r18
 4004c8c:	1480012e 	bgeu	r2,r18,4004c94 <__sfvwrite_r+0x1d4>
 4004c90:	1009883a 	mov	r4,r2
 4004c94:	b80b883a 	mov	r5,r23
 4004c98:	400a5640 	call	400a564 <__divsi3>
 4004c9c:	b80b883a 	mov	r5,r23
 4004ca0:	1009883a 	mov	r4,r2
 4004ca4:	400a7180 	call	400a718 <__mulsi3>
 4004ca8:	81400717 	ldw	r5,28(r16)
 4004cac:	80c00917 	ldw	r3,36(r16)
 4004cb0:	100f883a 	mov	r7,r2
 4004cb4:	e00d883a 	mov	r6,fp
 4004cb8:	a809883a 	mov	r4,r21
 4004cbc:	183ee83a 	callr	r3
 4004cc0:	00bfd816 	blt	zero,r2,4004c24 <__ram_exceptions_end+0xfbff49f4>
 4004cc4:	8080030b 	ldhu	r2,12(r16)
 4004cc8:	10801014 	ori	r2,r2,64
 4004ccc:	8080030d 	sth	r2,12(r16)
 4004cd0:	00bfffc4 	movi	r2,-1
 4004cd4:	003fa806 	br	4004b78 <__ram_exceptions_end+0xfbff4948>
 4004cd8:	0027883a 	mov	r19,zero
 4004cdc:	0011883a 	mov	r8,zero
 4004ce0:	0039883a 	mov	fp,zero
 4004ce4:	0025883a 	mov	r18,zero
 4004ce8:	90001f26 	beq	r18,zero,4004d68 <__sfvwrite_r+0x2a8>
 4004cec:	40005a26 	beq	r8,zero,4004e58 <__sfvwrite_r+0x398>
 4004cf0:	982d883a 	mov	r22,r19
 4004cf4:	94c0012e 	bgeu	r18,r19,4004cfc <__sfvwrite_r+0x23c>
 4004cf8:	902d883a 	mov	r22,r18
 4004cfc:	81000017 	ldw	r4,0(r16)
 4004d00:	80800417 	ldw	r2,16(r16)
 4004d04:	b02f883a 	mov	r23,r22
 4004d08:	81c00517 	ldw	r7,20(r16)
 4004d0c:	1100032e 	bgeu	r2,r4,4004d1c <__sfvwrite_r+0x25c>
 4004d10:	80c00217 	ldw	r3,8(r16)
 4004d14:	38c7883a 	add	r3,r7,r3
 4004d18:	1d801816 	blt	r3,r22,4004d7c <__sfvwrite_r+0x2bc>
 4004d1c:	b1c03e16 	blt	r22,r7,4004e18 <__sfvwrite_r+0x358>
 4004d20:	80800917 	ldw	r2,36(r16)
 4004d24:	81400717 	ldw	r5,28(r16)
 4004d28:	e00d883a 	mov	r6,fp
 4004d2c:	da000115 	stw	r8,4(sp)
 4004d30:	a809883a 	mov	r4,r21
 4004d34:	103ee83a 	callr	r2
 4004d38:	102f883a 	mov	r23,r2
 4004d3c:	da000117 	ldw	r8,4(sp)
 4004d40:	00bfe00e 	bge	zero,r2,4004cc4 <__ram_exceptions_end+0xfbff4a94>
 4004d44:	9de7c83a 	sub	r19,r19,r23
 4004d48:	98001f26 	beq	r19,zero,4004dc8 <__sfvwrite_r+0x308>
 4004d4c:	a0800217 	ldw	r2,8(r20)
 4004d50:	e5f9883a 	add	fp,fp,r23
 4004d54:	95e5c83a 	sub	r18,r18,r23
 4004d58:	15efc83a 	sub	r23,r2,r23
 4004d5c:	a5c00215 	stw	r23,8(r20)
 4004d60:	b83f8426 	beq	r23,zero,4004b74 <__ram_exceptions_end+0xfbff4944>
 4004d64:	903fe11e 	bne	r18,zero,4004cec <__ram_exceptions_end+0xfbff4abc>
 4004d68:	8f000017 	ldw	fp,0(r17)
 4004d6c:	8c800117 	ldw	r18,4(r17)
 4004d70:	0011883a 	mov	r8,zero
 4004d74:	8c400204 	addi	r17,r17,8
 4004d78:	003fdb06 	br	4004ce8 <__ram_exceptions_end+0xfbff4ab8>
 4004d7c:	180d883a 	mov	r6,r3
 4004d80:	e00b883a 	mov	r5,fp
 4004d84:	da000115 	stw	r8,4(sp)
 4004d88:	d8c00015 	stw	r3,0(sp)
 4004d8c:	4005de00 	call	4005de0 <memmove>
 4004d90:	d8c00017 	ldw	r3,0(sp)
 4004d94:	80800017 	ldw	r2,0(r16)
 4004d98:	800b883a 	mov	r5,r16
 4004d9c:	a809883a 	mov	r4,r21
 4004da0:	10c5883a 	add	r2,r2,r3
 4004da4:	80800015 	stw	r2,0(r16)
 4004da8:	d8c00015 	stw	r3,0(sp)
 4004dac:	40042500 	call	4004250 <_fflush_r>
 4004db0:	d8c00017 	ldw	r3,0(sp)
 4004db4:	da000117 	ldw	r8,4(sp)
 4004db8:	103fc21e 	bne	r2,zero,4004cc4 <__ram_exceptions_end+0xfbff4a94>
 4004dbc:	182f883a 	mov	r23,r3
 4004dc0:	9de7c83a 	sub	r19,r19,r23
 4004dc4:	983fe11e 	bne	r19,zero,4004d4c <__ram_exceptions_end+0xfbff4b1c>
 4004dc8:	800b883a 	mov	r5,r16
 4004dcc:	a809883a 	mov	r4,r21
 4004dd0:	40042500 	call	4004250 <_fflush_r>
 4004dd4:	103fbb1e 	bne	r2,zero,4004cc4 <__ram_exceptions_end+0xfbff4a94>
 4004dd8:	0011883a 	mov	r8,zero
 4004ddc:	003fdb06 	br	4004d4c <__ram_exceptions_end+0xfbff4b1c>
 4004de0:	94c0012e 	bgeu	r18,r19,4004de8 <__sfvwrite_r+0x328>
 4004de4:	9027883a 	mov	r19,r18
 4004de8:	980d883a 	mov	r6,r19
 4004dec:	e00b883a 	mov	r5,fp
 4004df0:	4005de00 	call	4005de0 <memmove>
 4004df4:	80800217 	ldw	r2,8(r16)
 4004df8:	80c00017 	ldw	r3,0(r16)
 4004dfc:	14c5c83a 	sub	r2,r2,r19
 4004e00:	1cc7883a 	add	r3,r3,r19
 4004e04:	80800215 	stw	r2,8(r16)
 4004e08:	80c00015 	stw	r3,0(r16)
 4004e0c:	10004326 	beq	r2,zero,4004f1c <__sfvwrite_r+0x45c>
 4004e10:	9805883a 	mov	r2,r19
 4004e14:	003f8306 	br	4004c24 <__ram_exceptions_end+0xfbff49f4>
 4004e18:	b00d883a 	mov	r6,r22
 4004e1c:	e00b883a 	mov	r5,fp
 4004e20:	da000115 	stw	r8,4(sp)
 4004e24:	4005de00 	call	4005de0 <memmove>
 4004e28:	80800217 	ldw	r2,8(r16)
 4004e2c:	80c00017 	ldw	r3,0(r16)
 4004e30:	da000117 	ldw	r8,4(sp)
 4004e34:	1585c83a 	sub	r2,r2,r22
 4004e38:	1dad883a 	add	r22,r3,r22
 4004e3c:	80800215 	stw	r2,8(r16)
 4004e40:	85800015 	stw	r22,0(r16)
 4004e44:	003fbf06 	br	4004d44 <__ram_exceptions_end+0xfbff4b14>
 4004e48:	81000017 	ldw	r4,0(r16)
 4004e4c:	9027883a 	mov	r19,r18
 4004e50:	902f883a 	mov	r23,r18
 4004e54:	003f6906 	br	4004bfc <__ram_exceptions_end+0xfbff49cc>
 4004e58:	900d883a 	mov	r6,r18
 4004e5c:	01400284 	movi	r5,10
 4004e60:	e009883a 	mov	r4,fp
 4004e64:	4005bb40 	call	4005bb4 <memchr>
 4004e68:	10003e26 	beq	r2,zero,4004f64 <__sfvwrite_r+0x4a4>
 4004e6c:	10800044 	addi	r2,r2,1
 4004e70:	1727c83a 	sub	r19,r2,fp
 4004e74:	02000044 	movi	r8,1
 4004e78:	003f9d06 	br	4004cf0 <__ram_exceptions_end+0xfbff4ac0>
 4004e7c:	80800517 	ldw	r2,20(r16)
 4004e80:	81400417 	ldw	r5,16(r16)
 4004e84:	81c00017 	ldw	r7,0(r16)
 4004e88:	10a7883a 	add	r19,r2,r2
 4004e8c:	9885883a 	add	r2,r19,r2
 4004e90:	1026d7fa 	srli	r19,r2,31
 4004e94:	396dc83a 	sub	r22,r7,r5
 4004e98:	b1000044 	addi	r4,r22,1
 4004e9c:	9885883a 	add	r2,r19,r2
 4004ea0:	1027d07a 	srai	r19,r2,1
 4004ea4:	2485883a 	add	r2,r4,r18
 4004ea8:	980d883a 	mov	r6,r19
 4004eac:	9880022e 	bgeu	r19,r2,4004eb8 <__sfvwrite_r+0x3f8>
 4004eb0:	1027883a 	mov	r19,r2
 4004eb4:	100d883a 	mov	r6,r2
 4004eb8:	18c1000c 	andi	r3,r3,1024
 4004ebc:	18001c26 	beq	r3,zero,4004f30 <__sfvwrite_r+0x470>
 4004ec0:	300b883a 	mov	r5,r6
 4004ec4:	a809883a 	mov	r4,r21
 4004ec8:	40053a80 	call	40053a8 <_malloc_r>
 4004ecc:	102f883a 	mov	r23,r2
 4004ed0:	10002926 	beq	r2,zero,4004f78 <__sfvwrite_r+0x4b8>
 4004ed4:	81400417 	ldw	r5,16(r16)
 4004ed8:	b00d883a 	mov	r6,r22
 4004edc:	1009883a 	mov	r4,r2
 4004ee0:	4005c980 	call	4005c98 <memcpy>
 4004ee4:	8080030b 	ldhu	r2,12(r16)
 4004ee8:	00fedfc4 	movi	r3,-1153
 4004eec:	10c4703a 	and	r2,r2,r3
 4004ef0:	10802014 	ori	r2,r2,128
 4004ef4:	8080030d 	sth	r2,12(r16)
 4004ef8:	bd89883a 	add	r4,r23,r22
 4004efc:	9d8fc83a 	sub	r7,r19,r22
 4004f00:	85c00415 	stw	r23,16(r16)
 4004f04:	84c00515 	stw	r19,20(r16)
 4004f08:	81000015 	stw	r4,0(r16)
 4004f0c:	9027883a 	mov	r19,r18
 4004f10:	81c00215 	stw	r7,8(r16)
 4004f14:	902f883a 	mov	r23,r18
 4004f18:	003f3806 	br	4004bfc <__ram_exceptions_end+0xfbff49cc>
 4004f1c:	800b883a 	mov	r5,r16
 4004f20:	a809883a 	mov	r4,r21
 4004f24:	40042500 	call	4004250 <_fflush_r>
 4004f28:	103fb926 	beq	r2,zero,4004e10 <__ram_exceptions_end+0xfbff4be0>
 4004f2c:	003f6506 	br	4004cc4 <__ram_exceptions_end+0xfbff4a94>
 4004f30:	a809883a 	mov	r4,r21
 4004f34:	400711c0 	call	400711c <_realloc_r>
 4004f38:	102f883a 	mov	r23,r2
 4004f3c:	103fee1e 	bne	r2,zero,4004ef8 <__ram_exceptions_end+0xfbff4cc8>
 4004f40:	81400417 	ldw	r5,16(r16)
 4004f44:	a809883a 	mov	r4,r21
 4004f48:	40047b00 	call	40047b0 <_free_r>
 4004f4c:	8080030b 	ldhu	r2,12(r16)
 4004f50:	00ffdfc4 	movi	r3,-129
 4004f54:	1884703a 	and	r2,r3,r2
 4004f58:	00c00304 	movi	r3,12
 4004f5c:	a8c00015 	stw	r3,0(r21)
 4004f60:	003f5906 	br	4004cc8 <__ram_exceptions_end+0xfbff4a98>
 4004f64:	94c00044 	addi	r19,r18,1
 4004f68:	02000044 	movi	r8,1
 4004f6c:	003f6006 	br	4004cf0 <__ram_exceptions_end+0xfbff4ac0>
 4004f70:	00bfffc4 	movi	r2,-1
 4004f74:	003f0006 	br	4004b78 <__ram_exceptions_end+0xfbff4948>
 4004f78:	00800304 	movi	r2,12
 4004f7c:	a8800015 	stw	r2,0(r21)
 4004f80:	8080030b 	ldhu	r2,12(r16)
 4004f84:	003f5006 	br	4004cc8 <__ram_exceptions_end+0xfbff4a98>

04004f88 <_fwalk>:
 4004f88:	defff704 	addi	sp,sp,-36
 4004f8c:	dd000415 	stw	r20,16(sp)
 4004f90:	dfc00815 	stw	ra,32(sp)
 4004f94:	ddc00715 	stw	r23,28(sp)
 4004f98:	dd800615 	stw	r22,24(sp)
 4004f9c:	dd400515 	stw	r21,20(sp)
 4004fa0:	dcc00315 	stw	r19,12(sp)
 4004fa4:	dc800215 	stw	r18,8(sp)
 4004fa8:	dc400115 	stw	r17,4(sp)
 4004fac:	dc000015 	stw	r16,0(sp)
 4004fb0:	2500b804 	addi	r20,r4,736
 4004fb4:	a0002326 	beq	r20,zero,4005044 <_fwalk+0xbc>
 4004fb8:	282b883a 	mov	r21,r5
 4004fbc:	002f883a 	mov	r23,zero
 4004fc0:	05800044 	movi	r22,1
 4004fc4:	04ffffc4 	movi	r19,-1
 4004fc8:	a4400117 	ldw	r17,4(r20)
 4004fcc:	a4800217 	ldw	r18,8(r20)
 4004fd0:	8c7fffc4 	addi	r17,r17,-1
 4004fd4:	88000d16 	blt	r17,zero,400500c <_fwalk+0x84>
 4004fd8:	94000304 	addi	r16,r18,12
 4004fdc:	94800384 	addi	r18,r18,14
 4004fe0:	8080000b 	ldhu	r2,0(r16)
 4004fe4:	8c7fffc4 	addi	r17,r17,-1
 4004fe8:	813ffd04 	addi	r4,r16,-12
 4004fec:	b080042e 	bgeu	r22,r2,4005000 <_fwalk+0x78>
 4004ff0:	9080000f 	ldh	r2,0(r18)
 4004ff4:	14c00226 	beq	r2,r19,4005000 <_fwalk+0x78>
 4004ff8:	a83ee83a 	callr	r21
 4004ffc:	b8aeb03a 	or	r23,r23,r2
 4005000:	84001a04 	addi	r16,r16,104
 4005004:	94801a04 	addi	r18,r18,104
 4005008:	8cfff51e 	bne	r17,r19,4004fe0 <__ram_exceptions_end+0xfbff4db0>
 400500c:	a5000017 	ldw	r20,0(r20)
 4005010:	a03fed1e 	bne	r20,zero,4004fc8 <__ram_exceptions_end+0xfbff4d98>
 4005014:	b805883a 	mov	r2,r23
 4005018:	dfc00817 	ldw	ra,32(sp)
 400501c:	ddc00717 	ldw	r23,28(sp)
 4005020:	dd800617 	ldw	r22,24(sp)
 4005024:	dd400517 	ldw	r21,20(sp)
 4005028:	dd000417 	ldw	r20,16(sp)
 400502c:	dcc00317 	ldw	r19,12(sp)
 4005030:	dc800217 	ldw	r18,8(sp)
 4005034:	dc400117 	ldw	r17,4(sp)
 4005038:	dc000017 	ldw	r16,0(sp)
 400503c:	dec00904 	addi	sp,sp,36
 4005040:	f800283a 	ret
 4005044:	002f883a 	mov	r23,zero
 4005048:	003ff206 	br	4005014 <__ram_exceptions_end+0xfbff4de4>

0400504c <_fwalk_reent>:
 400504c:	defff704 	addi	sp,sp,-36
 4005050:	dd000415 	stw	r20,16(sp)
 4005054:	dfc00815 	stw	ra,32(sp)
 4005058:	ddc00715 	stw	r23,28(sp)
 400505c:	dd800615 	stw	r22,24(sp)
 4005060:	dd400515 	stw	r21,20(sp)
 4005064:	dcc00315 	stw	r19,12(sp)
 4005068:	dc800215 	stw	r18,8(sp)
 400506c:	dc400115 	stw	r17,4(sp)
 4005070:	dc000015 	stw	r16,0(sp)
 4005074:	2500b804 	addi	r20,r4,736
 4005078:	a0002326 	beq	r20,zero,4005108 <_fwalk_reent+0xbc>
 400507c:	282b883a 	mov	r21,r5
 4005080:	2027883a 	mov	r19,r4
 4005084:	002f883a 	mov	r23,zero
 4005088:	05800044 	movi	r22,1
 400508c:	04bfffc4 	movi	r18,-1
 4005090:	a4400117 	ldw	r17,4(r20)
 4005094:	a4000217 	ldw	r16,8(r20)
 4005098:	8c7fffc4 	addi	r17,r17,-1
 400509c:	88000c16 	blt	r17,zero,40050d0 <_fwalk_reent+0x84>
 40050a0:	84000304 	addi	r16,r16,12
 40050a4:	8080000b 	ldhu	r2,0(r16)
 40050a8:	8c7fffc4 	addi	r17,r17,-1
 40050ac:	817ffd04 	addi	r5,r16,-12
 40050b0:	b080052e 	bgeu	r22,r2,40050c8 <_fwalk_reent+0x7c>
 40050b4:	8080008f 	ldh	r2,2(r16)
 40050b8:	9809883a 	mov	r4,r19
 40050bc:	14800226 	beq	r2,r18,40050c8 <_fwalk_reent+0x7c>
 40050c0:	a83ee83a 	callr	r21
 40050c4:	b8aeb03a 	or	r23,r23,r2
 40050c8:	84001a04 	addi	r16,r16,104
 40050cc:	8cbff51e 	bne	r17,r18,40050a4 <__ram_exceptions_end+0xfbff4e74>
 40050d0:	a5000017 	ldw	r20,0(r20)
 40050d4:	a03fee1e 	bne	r20,zero,4005090 <__ram_exceptions_end+0xfbff4e60>
 40050d8:	b805883a 	mov	r2,r23
 40050dc:	dfc00817 	ldw	ra,32(sp)
 40050e0:	ddc00717 	ldw	r23,28(sp)
 40050e4:	dd800617 	ldw	r22,24(sp)
 40050e8:	dd400517 	ldw	r21,20(sp)
 40050ec:	dd000417 	ldw	r20,16(sp)
 40050f0:	dcc00317 	ldw	r19,12(sp)
 40050f4:	dc800217 	ldw	r18,8(sp)
 40050f8:	dc400117 	ldw	r17,4(sp)
 40050fc:	dc000017 	ldw	r16,0(sp)
 4005100:	dec00904 	addi	sp,sp,36
 4005104:	f800283a 	ret
 4005108:	002f883a 	mov	r23,zero
 400510c:	003ff206 	br	40050d8 <__ram_exceptions_end+0xfbff4ea8>

04005110 <_setlocale_r>:
 4005110:	30001b26 	beq	r6,zero,4005180 <_setlocale_r+0x70>
 4005114:	01410074 	movhi	r5,1025
 4005118:	defffe04 	addi	sp,sp,-8
 400511c:	297dc804 	addi	r5,r5,-2272
 4005120:	3009883a 	mov	r4,r6
 4005124:	dc000015 	stw	r16,0(sp)
 4005128:	dfc00115 	stw	ra,4(sp)
 400512c:	3021883a 	mov	r16,r6
 4005130:	40078840 	call	4007884 <strcmp>
 4005134:	1000061e 	bne	r2,zero,4005150 <_setlocale_r+0x40>
 4005138:	00810074 	movhi	r2,1025
 400513c:	10bdc704 	addi	r2,r2,-2276
 4005140:	dfc00117 	ldw	ra,4(sp)
 4005144:	dc000017 	ldw	r16,0(sp)
 4005148:	dec00204 	addi	sp,sp,8
 400514c:	f800283a 	ret
 4005150:	01410074 	movhi	r5,1025
 4005154:	297dc704 	addi	r5,r5,-2276
 4005158:	8009883a 	mov	r4,r16
 400515c:	40078840 	call	4007884 <strcmp>
 4005160:	103ff526 	beq	r2,zero,4005138 <__ram_exceptions_end+0xfbff4f08>
 4005164:	01410074 	movhi	r5,1025
 4005168:	297db204 	addi	r5,r5,-2360
 400516c:	8009883a 	mov	r4,r16
 4005170:	40078840 	call	4007884 <strcmp>
 4005174:	103ff026 	beq	r2,zero,4005138 <__ram_exceptions_end+0xfbff4f08>
 4005178:	0005883a 	mov	r2,zero
 400517c:	003ff006 	br	4005140 <__ram_exceptions_end+0xfbff4f10>
 4005180:	00810074 	movhi	r2,1025
 4005184:	10bdc704 	addi	r2,r2,-2276
 4005188:	f800283a 	ret

0400518c <__locale_charset>:
 400518c:	00810074 	movhi	r2,1025
 4005190:	10bf7804 	addi	r2,r2,-544
 4005194:	f800283a 	ret

04005198 <__locale_mb_cur_max>:
 4005198:	00810074 	movhi	r2,1025
 400519c:	10851504 	addi	r2,r2,5204
 40051a0:	10800017 	ldw	r2,0(r2)
 40051a4:	f800283a 	ret

040051a8 <__locale_msgcharset>:
 40051a8:	00810074 	movhi	r2,1025
 40051ac:	10bf7004 	addi	r2,r2,-576
 40051b0:	f800283a 	ret

040051b4 <__locale_cjk_lang>:
 40051b4:	0005883a 	mov	r2,zero
 40051b8:	f800283a 	ret

040051bc <_localeconv_r>:
 40051bc:	00810074 	movhi	r2,1025
 40051c0:	10bf8004 	addi	r2,r2,-512
 40051c4:	f800283a 	ret

040051c8 <setlocale>:
 40051c8:	00810074 	movhi	r2,1025
 40051cc:	10851404 	addi	r2,r2,5200
 40051d0:	280d883a 	mov	r6,r5
 40051d4:	200b883a 	mov	r5,r4
 40051d8:	11000017 	ldw	r4,0(r2)
 40051dc:	40051101 	jmpi	4005110 <_setlocale_r>

040051e0 <localeconv>:
 40051e0:	00810074 	movhi	r2,1025
 40051e4:	10bf8004 	addi	r2,r2,-512
 40051e8:	f800283a 	ret

040051ec <__smakebuf_r>:
 40051ec:	2880030b 	ldhu	r2,12(r5)
 40051f0:	10c0008c 	andi	r3,r2,2
 40051f4:	1800411e 	bne	r3,zero,40052fc <__smakebuf_r+0x110>
 40051f8:	deffec04 	addi	sp,sp,-80
 40051fc:	dc000f15 	stw	r16,60(sp)
 4005200:	2821883a 	mov	r16,r5
 4005204:	2940038f 	ldh	r5,14(r5)
 4005208:	dc401015 	stw	r17,64(sp)
 400520c:	dfc01315 	stw	ra,76(sp)
 4005210:	dcc01215 	stw	r19,72(sp)
 4005214:	dc801115 	stw	r18,68(sp)
 4005218:	2023883a 	mov	r17,r4
 400521c:	28001c16 	blt	r5,zero,4005290 <__smakebuf_r+0xa4>
 4005220:	d80d883a 	mov	r6,sp
 4005224:	40094f40 	call	40094f4 <_fstat_r>
 4005228:	10001816 	blt	r2,zero,400528c <__smakebuf_r+0xa0>
 400522c:	d8800117 	ldw	r2,4(sp)
 4005230:	00e00014 	movui	r3,32768
 4005234:	10bc000c 	andi	r2,r2,61440
 4005238:	14c80020 	cmpeqi	r19,r2,8192
 400523c:	10c03726 	beq	r2,r3,400531c <__smakebuf_r+0x130>
 4005240:	80c0030b 	ldhu	r3,12(r16)
 4005244:	18c20014 	ori	r3,r3,2048
 4005248:	80c0030d 	sth	r3,12(r16)
 400524c:	00c80004 	movi	r3,8192
 4005250:	10c0521e 	bne	r2,r3,400539c <__smakebuf_r+0x1b0>
 4005254:	8140038f 	ldh	r5,14(r16)
 4005258:	8809883a 	mov	r4,r17
 400525c:	40095500 	call	4009550 <_isatty_r>
 4005260:	10004c26 	beq	r2,zero,4005394 <__smakebuf_r+0x1a8>
 4005264:	8080030b 	ldhu	r2,12(r16)
 4005268:	80c010c4 	addi	r3,r16,67
 400526c:	80c00015 	stw	r3,0(r16)
 4005270:	10800054 	ori	r2,r2,1
 4005274:	8080030d 	sth	r2,12(r16)
 4005278:	00800044 	movi	r2,1
 400527c:	80c00415 	stw	r3,16(r16)
 4005280:	80800515 	stw	r2,20(r16)
 4005284:	04810004 	movi	r18,1024
 4005288:	00000706 	br	40052a8 <__smakebuf_r+0xbc>
 400528c:	8080030b 	ldhu	r2,12(r16)
 4005290:	10c0200c 	andi	r3,r2,128
 4005294:	18001f1e 	bne	r3,zero,4005314 <__smakebuf_r+0x128>
 4005298:	04810004 	movi	r18,1024
 400529c:	10820014 	ori	r2,r2,2048
 40052a0:	8080030d 	sth	r2,12(r16)
 40052a4:	0027883a 	mov	r19,zero
 40052a8:	900b883a 	mov	r5,r18
 40052ac:	8809883a 	mov	r4,r17
 40052b0:	40053a80 	call	40053a8 <_malloc_r>
 40052b4:	10002c26 	beq	r2,zero,4005368 <__smakebuf_r+0x17c>
 40052b8:	80c0030b 	ldhu	r3,12(r16)
 40052bc:	01010034 	movhi	r4,1024
 40052c0:	2110b904 	addi	r4,r4,17124
 40052c4:	89000f15 	stw	r4,60(r17)
 40052c8:	18c02014 	ori	r3,r3,128
 40052cc:	80c0030d 	sth	r3,12(r16)
 40052d0:	80800015 	stw	r2,0(r16)
 40052d4:	80800415 	stw	r2,16(r16)
 40052d8:	84800515 	stw	r18,20(r16)
 40052dc:	98001a1e 	bne	r19,zero,4005348 <__smakebuf_r+0x15c>
 40052e0:	dfc01317 	ldw	ra,76(sp)
 40052e4:	dcc01217 	ldw	r19,72(sp)
 40052e8:	dc801117 	ldw	r18,68(sp)
 40052ec:	dc401017 	ldw	r17,64(sp)
 40052f0:	dc000f17 	ldw	r16,60(sp)
 40052f4:	dec01404 	addi	sp,sp,80
 40052f8:	f800283a 	ret
 40052fc:	288010c4 	addi	r2,r5,67
 4005300:	28800015 	stw	r2,0(r5)
 4005304:	28800415 	stw	r2,16(r5)
 4005308:	00800044 	movi	r2,1
 400530c:	28800515 	stw	r2,20(r5)
 4005310:	f800283a 	ret
 4005314:	04801004 	movi	r18,64
 4005318:	003fe006 	br	400529c <__ram_exceptions_end+0xfbff506c>
 400531c:	81000a17 	ldw	r4,40(r16)
 4005320:	00c10034 	movhi	r3,1024
 4005324:	18de0804 	addi	r3,r3,30752
 4005328:	20ffc51e 	bne	r4,r3,4005240 <__ram_exceptions_end+0xfbff5010>
 400532c:	8080030b 	ldhu	r2,12(r16)
 4005330:	04810004 	movi	r18,1024
 4005334:	84801315 	stw	r18,76(r16)
 4005338:	1484b03a 	or	r2,r2,r18
 400533c:	8080030d 	sth	r2,12(r16)
 4005340:	0027883a 	mov	r19,zero
 4005344:	003fd806 	br	40052a8 <__ram_exceptions_end+0xfbff5078>
 4005348:	8140038f 	ldh	r5,14(r16)
 400534c:	8809883a 	mov	r4,r17
 4005350:	40095500 	call	4009550 <_isatty_r>
 4005354:	103fe226 	beq	r2,zero,40052e0 <__ram_exceptions_end+0xfbff50b0>
 4005358:	8080030b 	ldhu	r2,12(r16)
 400535c:	10800054 	ori	r2,r2,1
 4005360:	8080030d 	sth	r2,12(r16)
 4005364:	003fde06 	br	40052e0 <__ram_exceptions_end+0xfbff50b0>
 4005368:	8080030b 	ldhu	r2,12(r16)
 400536c:	10c0800c 	andi	r3,r2,512
 4005370:	183fdb1e 	bne	r3,zero,40052e0 <__ram_exceptions_end+0xfbff50b0>
 4005374:	10800094 	ori	r2,r2,2
 4005378:	80c010c4 	addi	r3,r16,67
 400537c:	8080030d 	sth	r2,12(r16)
 4005380:	00800044 	movi	r2,1
 4005384:	80c00015 	stw	r3,0(r16)
 4005388:	80c00415 	stw	r3,16(r16)
 400538c:	80800515 	stw	r2,20(r16)
 4005390:	003fd306 	br	40052e0 <__ram_exceptions_end+0xfbff50b0>
 4005394:	04810004 	movi	r18,1024
 4005398:	003fc306 	br	40052a8 <__ram_exceptions_end+0xfbff5078>
 400539c:	0027883a 	mov	r19,zero
 40053a0:	04810004 	movi	r18,1024
 40053a4:	003fc006 	br	40052a8 <__ram_exceptions_end+0xfbff5078>

040053a8 <_malloc_r>:
 40053a8:	defff504 	addi	sp,sp,-44
 40053ac:	dc800315 	stw	r18,12(sp)
 40053b0:	dfc00a15 	stw	ra,40(sp)
 40053b4:	df000915 	stw	fp,36(sp)
 40053b8:	ddc00815 	stw	r23,32(sp)
 40053bc:	dd800715 	stw	r22,28(sp)
 40053c0:	dd400615 	stw	r21,24(sp)
 40053c4:	dd000515 	stw	r20,20(sp)
 40053c8:	dcc00415 	stw	r19,16(sp)
 40053cc:	dc400215 	stw	r17,8(sp)
 40053d0:	dc000115 	stw	r16,4(sp)
 40053d4:	288002c4 	addi	r2,r5,11
 40053d8:	00c00584 	movi	r3,22
 40053dc:	2025883a 	mov	r18,r4
 40053e0:	18807f2e 	bgeu	r3,r2,40055e0 <_malloc_r+0x238>
 40053e4:	047ffe04 	movi	r17,-8
 40053e8:	1462703a 	and	r17,r2,r17
 40053ec:	8800a316 	blt	r17,zero,400567c <_malloc_r+0x2d4>
 40053f0:	8940a236 	bltu	r17,r5,400567c <_malloc_r+0x2d4>
 40053f4:	400d5800 	call	400d580 <__malloc_lock>
 40053f8:	00807dc4 	movi	r2,503
 40053fc:	1441e92e 	bgeu	r2,r17,4005ba4 <_malloc_r+0x7fc>
 4005400:	8804d27a 	srli	r2,r17,9
 4005404:	1000a126 	beq	r2,zero,400568c <_malloc_r+0x2e4>
 4005408:	00c00104 	movi	r3,4
 400540c:	18811e36 	bltu	r3,r2,4005888 <_malloc_r+0x4e0>
 4005410:	8804d1ba 	srli	r2,r17,6
 4005414:	12000e44 	addi	r8,r2,57
 4005418:	11c00e04 	addi	r7,r2,56
 400541c:	4209883a 	add	r4,r8,r8
 4005420:	04c10074 	movhi	r19,1025
 4005424:	2109883a 	add	r4,r4,r4
 4005428:	9cff8e04 	addi	r19,r19,-456
 400542c:	2109883a 	add	r4,r4,r4
 4005430:	9909883a 	add	r4,r19,r4
 4005434:	24000117 	ldw	r16,4(r4)
 4005438:	213ffe04 	addi	r4,r4,-8
 400543c:	24009726 	beq	r4,r16,400569c <_malloc_r+0x2f4>
 4005440:	80800117 	ldw	r2,4(r16)
 4005444:	01bfff04 	movi	r6,-4
 4005448:	014003c4 	movi	r5,15
 400544c:	1184703a 	and	r2,r2,r6
 4005450:	1447c83a 	sub	r3,r2,r17
 4005454:	28c00716 	blt	r5,r3,4005474 <_malloc_r+0xcc>
 4005458:	1800920e 	bge	r3,zero,40056a4 <_malloc_r+0x2fc>
 400545c:	84000317 	ldw	r16,12(r16)
 4005460:	24008e26 	beq	r4,r16,400569c <_malloc_r+0x2f4>
 4005464:	80800117 	ldw	r2,4(r16)
 4005468:	1184703a 	and	r2,r2,r6
 400546c:	1447c83a 	sub	r3,r2,r17
